Archive member included to satisfy reference by file (symbol)

c:/program files (x86)/gnu tools arm embedded/5.2 2015q4/bin/../lib/gcc/arm-none-eabi/5.2.1/../../../../arm-none-eabi/lib/armv7-m\libm.a(lib_a-sf_cos.o)
                              obj/CUPDRONE/gps.o (cosf)
c:/program files (x86)/gnu tools arm embedded/5.2 2015q4/bin/../lib/gcc/arm-none-eabi/5.2.1/../../../../arm-none-eabi/lib/armv7-m\libm.a(lib_a-sf_lrint.o)
                              obj/CUPDRONE/imu.o (lrintf)
c:/program files (x86)/gnu tools arm embedded/5.2 2015q4/bin/../lib/gcc/arm-none-eabi/5.2.1/../../../../arm-none-eabi/lib/armv7-m\libm.a(lib_a-sf_sin.o)
                              obj/CUPDRONE/gps.o (sinf)
c:/program files (x86)/gnu tools arm embedded/5.2 2015q4/bin/../lib/gcc/arm-none-eabi/5.2.1/../../../../arm-none-eabi/lib/armv7-m\libm.a(lib_a-wf_atan2.o)
                              obj/CUPDRONE/gps.o (atan2f)
c:/program files (x86)/gnu tools arm embedded/5.2 2015q4/bin/../lib/gcc/arm-none-eabi/5.2.1/../../../../arm-none-eabi/lib/armv7-m\libm.a(lib_a-wf_pow.o)
                              obj/CUPDRONE/imu.o (powf)
c:/program files (x86)/gnu tools arm embedded/5.2 2015q4/bin/../lib/gcc/arm-none-eabi/5.2.1/../../../../arm-none-eabi/lib/armv7-m\libm.a(lib_a-wf_sqrt.o)
                              obj/CUPDRONE/gps.o (sqrtf)
c:/program files (x86)/gnu tools arm embedded/5.2 2015q4/bin/../lib/gcc/arm-none-eabi/5.2.1/../../../../arm-none-eabi/lib/armv7-m\libm.a(lib_a-ef_atan2.o)
                              c:/program files (x86)/gnu tools arm embedded/5.2 2015q4/bin/../lib/gcc/arm-none-eabi/5.2.1/../../../../arm-none-eabi/lib/armv7-m\libm.a(lib_a-wf_atan2.o) (__ieee754_atan2f)
c:/program files (x86)/gnu tools arm embedded/5.2 2015q4/bin/../lib/gcc/arm-none-eabi/5.2.1/../../../../arm-none-eabi/lib/armv7-m\libm.a(lib_a-ef_pow.o)
                              c:/program files (x86)/gnu tools arm embedded/5.2 2015q4/bin/../lib/gcc/arm-none-eabi/5.2.1/../../../../arm-none-eabi/lib/armv7-m\libm.a(lib_a-wf_pow.o) (__ieee754_powf)
c:/program files (x86)/gnu tools arm embedded/5.2 2015q4/bin/../lib/gcc/arm-none-eabi/5.2.1/../../../../arm-none-eabi/lib/armv7-m\libm.a(lib_a-ef_rem_pio2.o)
                              c:/program files (x86)/gnu tools arm embedded/5.2 2015q4/bin/../lib/gcc/arm-none-eabi/5.2.1/../../../../arm-none-eabi/lib/armv7-m\libm.a(lib_a-sf_cos.o) (__ieee754_rem_pio2f)
c:/program files (x86)/gnu tools arm embedded/5.2 2015q4/bin/../lib/gcc/arm-none-eabi/5.2.1/../../../../arm-none-eabi/lib/armv7-m\libm.a(lib_a-ef_sqrt.o)
                              c:/program files (x86)/gnu tools arm embedded/5.2 2015q4/bin/../lib/gcc/arm-none-eabi/5.2.1/../../../../arm-none-eabi/lib/armv7-m\libm.a(lib_a-wf_sqrt.o) (__ieee754_sqrtf)
c:/program files (x86)/gnu tools arm embedded/5.2 2015q4/bin/../lib/gcc/arm-none-eabi/5.2.1/../../../../arm-none-eabi/lib/armv7-m\libm.a(lib_a-kf_cos.o)
                              c:/program files (x86)/gnu tools arm embedded/5.2 2015q4/bin/../lib/gcc/arm-none-eabi/5.2.1/../../../../arm-none-eabi/lib/armv7-m\libm.a(lib_a-sf_cos.o) (__kernel_cosf)
c:/program files (x86)/gnu tools arm embedded/5.2 2015q4/bin/../lib/gcc/arm-none-eabi/5.2.1/../../../../arm-none-eabi/lib/armv7-m\libm.a(lib_a-kf_rem_pio2.o)
                              c:/program files (x86)/gnu tools arm embedded/5.2 2015q4/bin/../lib/gcc/arm-none-eabi/5.2.1/../../../../arm-none-eabi/lib/armv7-m\libm.a(lib_a-ef_rem_pio2.o) (__kernel_rem_pio2f)
c:/program files (x86)/gnu tools arm embedded/5.2 2015q4/bin/../lib/gcc/arm-none-eabi/5.2.1/../../../../arm-none-eabi/lib/armv7-m\libm.a(lib_a-kf_sin.o)
                              c:/program files (x86)/gnu tools arm embedded/5.2 2015q4/bin/../lib/gcc/arm-none-eabi/5.2.1/../../../../arm-none-eabi/lib/armv7-m\libm.a(lib_a-sf_cos.o) (__kernel_sinf)
c:/program files (x86)/gnu tools arm embedded/5.2 2015q4/bin/../lib/gcc/arm-none-eabi/5.2.1/../../../../arm-none-eabi/lib/armv7-m\libm.a(lib_a-s_lib_ver.o)
                              c:/program files (x86)/gnu tools arm embedded/5.2 2015q4/bin/../lib/gcc/arm-none-eabi/5.2.1/../../../../arm-none-eabi/lib/armv7-m\libm.a(lib_a-wf_pow.o) (__fdlib_version)
c:/program files (x86)/gnu tools arm embedded/5.2 2015q4/bin/../lib/gcc/arm-none-eabi/5.2.1/../../../../arm-none-eabi/lib/armv7-m\libm.a(lib_a-s_matherr.o)
                              c:/program files (x86)/gnu tools arm embedded/5.2 2015q4/bin/../lib/gcc/arm-none-eabi/5.2.1/../../../../arm-none-eabi/lib/armv7-m\libm.a(lib_a-wf_pow.o) (matherr)
c:/program files (x86)/gnu tools arm embedded/5.2 2015q4/bin/../lib/gcc/arm-none-eabi/5.2.1/../../../../arm-none-eabi/lib/armv7-m\libm.a(lib_a-s_rint.o)
                              c:/program files (x86)/gnu tools arm embedded/5.2 2015q4/bin/../lib/gcc/arm-none-eabi/5.2.1/../../../../arm-none-eabi/lib/armv7-m\libm.a(lib_a-wf_pow.o) (rint)
c:/program files (x86)/gnu tools arm embedded/5.2 2015q4/bin/../lib/gcc/arm-none-eabi/5.2.1/../../../../arm-none-eabi/lib/armv7-m\libm.a(lib_a-sf_atan.o)
                              c:/program files (x86)/gnu tools arm embedded/5.2 2015q4/bin/../lib/gcc/arm-none-eabi/5.2.1/../../../../arm-none-eabi/lib/armv7-m\libm.a(lib_a-ef_atan2.o) (atanf)
c:/program files (x86)/gnu tools arm embedded/5.2 2015q4/bin/../lib/gcc/arm-none-eabi/5.2.1/../../../../arm-none-eabi/lib/armv7-m\libm.a(lib_a-sf_fabs.o)
                              c:/program files (x86)/gnu tools arm embedded/5.2 2015q4/bin/../lib/gcc/arm-none-eabi/5.2.1/../../../../arm-none-eabi/lib/armv7-m\libm.a(lib_a-ef_atan2.o) (fabsf)
c:/program files (x86)/gnu tools arm embedded/5.2 2015q4/bin/../lib/gcc/arm-none-eabi/5.2.1/../../../../arm-none-eabi/lib/armv7-m\libm.a(lib_a-sf_finite.o)
                              c:/program files (x86)/gnu tools arm embedded/5.2 2015q4/bin/../lib/gcc/arm-none-eabi/5.2.1/../../../../arm-none-eabi/lib/armv7-m\libm.a(lib_a-wf_pow.o) (finitef)
c:/program files (x86)/gnu tools arm embedded/5.2 2015q4/bin/../lib/gcc/arm-none-eabi/5.2.1/../../../../arm-none-eabi/lib/armv7-m\libm.a(lib_a-sf_floor.o)
                              c:/program files (x86)/gnu tools arm embedded/5.2 2015q4/bin/../lib/gcc/arm-none-eabi/5.2.1/../../../../arm-none-eabi/lib/armv7-m\libm.a(lib_a-kf_rem_pio2.o) (floorf)
c:/program files (x86)/gnu tools arm embedded/5.2 2015q4/bin/../lib/gcc/arm-none-eabi/5.2.1/../../../../arm-none-eabi/lib/armv7-m\libm.a(lib_a-sf_fpclassify.o)
                              c:/program files (x86)/gnu tools arm embedded/5.2 2015q4/bin/../lib/gcc/arm-none-eabi/5.2.1/../../../../arm-none-eabi/lib/armv7-m\libm.a(lib_a-wf_pow.o) (__fpclassifyf)
c:/program files (x86)/gnu tools arm embedded/5.2 2015q4/bin/../lib/gcc/arm-none-eabi/5.2.1/../../../../arm-none-eabi/lib/armv7-m\libm.a(lib_a-sf_nan.o)
                              c:/program files (x86)/gnu tools arm embedded/5.2 2015q4/bin/../lib/gcc/arm-none-eabi/5.2.1/../../../../arm-none-eabi/lib/armv7-m\libm.a(lib_a-ef_pow.o) (nanf)
c:/program files (x86)/gnu tools arm embedded/5.2 2015q4/bin/../lib/gcc/arm-none-eabi/5.2.1/../../../../arm-none-eabi/lib/armv7-m\libm.a(lib_a-sf_scalbn.o)
                              c:/program files (x86)/gnu tools arm embedded/5.2 2015q4/bin/../lib/gcc/arm-none-eabi/5.2.1/../../../../arm-none-eabi/lib/armv7-m\libm.a(lib_a-ef_pow.o) (scalbnf)
c:/program files (x86)/gnu tools arm embedded/5.2 2015q4/bin/../lib/gcc/arm-none-eabi/5.2.1/../../../../arm-none-eabi/lib/armv7-m\libm.a(lib_a-sf_copysign.o)
                              c:/program files (x86)/gnu tools arm embedded/5.2 2015q4/bin/../lib/gcc/arm-none-eabi/5.2.1/../../../../arm-none-eabi/lib/armv7-m\libm.a(lib_a-sf_scalbn.o) (copysignf)
c:/program files (x86)/gnu tools arm embedded/5.2 2015q4/bin/../lib/gcc/arm-none-eabi/5.2.1/armv7-m\libgcc.a(_arm_addsubdf3.o)
                              c:/program files (x86)/gnu tools arm embedded/5.2 2015q4/bin/../lib/gcc/arm-none-eabi/5.2.1/../../../../arm-none-eabi/lib/armv7-m\libm.a(lib_a-s_rint.o) (__aeabi_dsub)
c:/program files (x86)/gnu tools arm embedded/5.2 2015q4/bin/../lib/gcc/arm-none-eabi/5.2.1/armv7-m\libgcc.a(_arm_muldivdf3.o)
                              obj/CUPDRONE/gps.o (__aeabi_dmul)
c:/program files (x86)/gnu tools arm embedded/5.2 2015q4/bin/../lib/gcc/arm-none-eabi/5.2.1/armv7-m\libgcc.a(_arm_cmpdf2.o)
                              c:/program files (x86)/gnu tools arm embedded/5.2 2015q4/bin/../lib/gcc/arm-none-eabi/5.2.1/../../../../arm-none-eabi/lib/armv7-m\libm.a(lib_a-wf_pow.o) (__aeabi_dcmpeq)
c:/program files (x86)/gnu tools arm embedded/5.2 2015q4/bin/../lib/gcc/arm-none-eabi/5.2.1/armv7-m\libgcc.a(_arm_truncdfsf2.o)
                              obj/CUPDRONE/gps.o (__aeabi_d2f)
c:/program files (x86)/gnu tools arm embedded/5.2 2015q4/bin/../lib/gcc/arm-none-eabi/5.2.1/armv7-m\libgcc.a(_arm_addsubsf3.o)
                              obj/CUPDRONE/cli.o (__aeabi_fsub)
c:/program files (x86)/gnu tools arm embedded/5.2 2015q4/bin/../lib/gcc/arm-none-eabi/5.2.1/armv7-m\libgcc.a(_arm_muldivsf3.o)
                              obj/CUPDRONE/drv_hmc5883l.o (__aeabi_fmul)
c:/program files (x86)/gnu tools arm embedded/5.2 2015q4/bin/../lib/gcc/arm-none-eabi/5.2.1/armv7-m\libgcc.a(_arm_cmpsf2.o)
                              obj/CUPDRONE/cli.o (__aeabi_fcmpeq)
c:/program files (x86)/gnu tools arm embedded/5.2 2015q4/bin/../lib/gcc/arm-none-eabi/5.2.1/armv7-m\libgcc.a(_arm_fixsfsi.o)
                              obj/CUPDRONE/drv_hmc5883l.o (__aeabi_f2iz)
c:/program files (x86)/gnu tools arm embedded/5.2 2015q4/bin/../lib/gcc/arm-none-eabi/5.2.1/armv7-m\libgcc.a(_arm_fixunssfsi.o)
                              obj/CUPDRONE/gps.o (__aeabi_f2uiz)
c:/program files (x86)/gnu tools arm embedded/5.2 2015q4/bin/../lib/gcc/arm-none-eabi/5.2.1/../../../../arm-none-eabi/lib/armv7-m\libc.a(lib_a-atoi.o)
                              obj/CUPDRONE/cli.o (atoi)
c:/program files (x86)/gnu tools arm embedded/5.2 2015q4/bin/../lib/gcc/arm-none-eabi/5.2.1/../../../../arm-none-eabi/lib/armv7-m\libc.a(lib_a-bsearch.o)
                              obj/CUPDRONE/cli.o (bsearch)
c:/program files (x86)/gnu tools arm embedded/5.2 2015q4/bin/../lib/gcc/arm-none-eabi/5.2.1/../../../../arm-none-eabi/lib/armv7-m\libc.a(lib_a-ctype_.o)
                              obj/CUPDRONE/cli.o (__ctype_ptr__)
c:/program files (x86)/gnu tools arm embedded/5.2 2015q4/bin/../lib/gcc/arm-none-eabi/5.2.1/../../../../arm-none-eabi/lib/armv7-m\libc.a(lib_a-errno.o)
                              c:/program files (x86)/gnu tools arm embedded/5.2 2015q4/bin/../lib/gcc/arm-none-eabi/5.2.1/../../../../arm-none-eabi/lib/armv7-m\libm.a(lib_a-wf_pow.o) (__errno)
c:/program files (x86)/gnu tools arm embedded/5.2 2015q4/bin/../lib/gcc/arm-none-eabi/5.2.1/../../../../arm-none-eabi/lib/armv7-m\libc.a(lib_a-exit.o)
                              c:/program files (x86)/gnu tools arm embedded/5.2 2015q4/bin/../lib/gcc/arm-none-eabi/5.2.1/../../../../arm-none-eabi/lib/armv7-m/crt0.o (exit)
c:/program files (x86)/gnu tools arm embedded/5.2 2015q4/bin/../lib/gcc/arm-none-eabi/5.2.1/../../../../arm-none-eabi/lib/armv7-m\libc.a(lib_a-impure.o)
                              c:/program files (x86)/gnu tools arm embedded/5.2 2015q4/bin/../lib/gcc/arm-none-eabi/5.2.1/../../../../arm-none-eabi/lib/armv7-m\libc.a(lib_a-exit.o) (_global_impure_ptr)
c:/program files (x86)/gnu tools arm embedded/5.2 2015q4/bin/../lib/gcc/arm-none-eabi/5.2.1/../../../../arm-none-eabi/lib/armv7-m\libc.a(lib_a-init.o)
                              c:/program files (x86)/gnu tools arm embedded/5.2 2015q4/bin/../lib/gcc/arm-none-eabi/5.2.1/../../../../arm-none-eabi/lib/armv7-m/crt0.o (__libc_init_array)
c:/program files (x86)/gnu tools arm embedded/5.2 2015q4/bin/../lib/gcc/arm-none-eabi/5.2.1/../../../../arm-none-eabi/lib/armv7-m\libc.a(lib_a-memcpy.o)
                              obj/CUPDRONE/config.o (memcpy)
c:/program files (x86)/gnu tools arm embedded/5.2 2015q4/bin/../lib/gcc/arm-none-eabi/5.2.1/../../../../arm-none-eabi/lib/armv7-m\libc.a(lib_a-memset.o)
                              c:/program files (x86)/gnu tools arm embedded/5.2 2015q4/bin/../lib/gcc/arm-none-eabi/5.2.1/../../../../arm-none-eabi/lib/armv7-m/crt0.o (memset)
c:/program files (x86)/gnu tools arm embedded/5.2 2015q4/bin/../lib/gcc/arm-none-eabi/5.2.1/../../../../arm-none-eabi/lib/armv7-m\libc.a(lib_a-strcat.o)
                              obj/CUPDRONE/cli.o (strcat)
c:/program files (x86)/gnu tools arm embedded/5.2 2015q4/bin/../lib/gcc/arm-none-eabi/5.2.1/../../../../arm-none-eabi/lib/armv7-m\libc.a(lib_a-strchr.o)
                              obj/CUPDRONE/cli.o (strchr)
c:/program files (x86)/gnu tools arm embedded/5.2 2015q4/bin/../lib/gcc/arm-none-eabi/5.2.1/../../../../arm-none-eabi/lib/armv7-m\libc.a(lib_a-strcpy.o)
                              c:/program files (x86)/gnu tools arm embedded/5.2 2015q4/bin/../lib/gcc/arm-none-eabi/5.2.1/../../../../arm-none-eabi/lib/armv7-m\libc.a(lib_a-strcat.o) (strcpy)
c:/program files (x86)/gnu tools arm embedded/5.2 2015q4/bin/../lib/gcc/arm-none-eabi/5.2.1/../../../../arm-none-eabi/lib/armv7-m\libc.a(lib_a-strlen-stub.o)
                              obj/CUPDRONE/cli.o (strlen)
c:/program files (x86)/gnu tools arm embedded/5.2 2015q4/bin/../lib/gcc/arm-none-eabi/5.2.1/../../../../arm-none-eabi/lib/armv7-m\libc.a(lib_a-strncasecmp.o)
                              obj/CUPDRONE/cli.o (strncasecmp)
c:/program files (x86)/gnu tools arm embedded/5.2 2015q4/bin/../lib/gcc/arm-none-eabi/5.2.1/../../../../arm-none-eabi/lib/armv7-m\libc.a(lib_a-strncpy.o)
                              obj/CUPDRONE/cli.o (strncpy)
c:/program files (x86)/gnu tools arm embedded/5.2 2015q4/bin/../lib/gcc/arm-none-eabi/5.2.1/../../../../arm-none-eabi/lib/armv7-m\libc.a(lib_a-strstr.o)
                              obj/CUPDRONE/cli.o (strstr)
c:/program files (x86)/gnu tools arm embedded/5.2 2015q4/bin/../lib/gcc/arm-none-eabi/5.2.1/../../../../arm-none-eabi/lib/armv7-m\libc.a(lib_a-strtok.o)
                              obj/CUPDRONE/cli.o (strtok)
c:/program files (x86)/gnu tools arm embedded/5.2 2015q4/bin/../lib/gcc/arm-none-eabi/5.2.1/../../../../arm-none-eabi/lib/armv7-m\libc.a(lib_a-strtok_r.o)
                              c:/program files (x86)/gnu tools arm embedded/5.2 2015q4/bin/../lib/gcc/arm-none-eabi/5.2.1/../../../../arm-none-eabi/lib/armv7-m\libc.a(lib_a-strtok.o) (__strtok_r)
c:/program files (x86)/gnu tools arm embedded/5.2 2015q4/bin/../lib/gcc/arm-none-eabi/5.2.1/../../../../arm-none-eabi/lib/armv7-m\libc.a(lib_a-strtol.o)
                              c:/program files (x86)/gnu tools arm embedded/5.2 2015q4/bin/../lib/gcc/arm-none-eabi/5.2.1/../../../../arm-none-eabi/lib/armv7-m\libc.a(lib_a-atoi.o) (_strtol_r)
c:/program files (x86)/gnu tools arm embedded/5.2 2015q4/bin/../lib/gcc/arm-none-eabi/5.2.1/../../../../arm-none-eabi/lib/armv7-m\libc.a(lib_a-__call_atexit.o)
                              c:/program files (x86)/gnu tools arm embedded/5.2 2015q4/bin/../lib/gcc/arm-none-eabi/5.2.1/../../../../arm-none-eabi/lib/armv7-m\libc.a(lib_a-exit.o) (__call_exitprocs)
c:/program files (x86)/gnu tools arm embedded/5.2 2015q4/bin/../lib/gcc/arm-none-eabi/5.2.1/../../../../arm-none-eabi/lib/armv7-m\libc.a(lib_a-atexit.o)
                              c:/program files (x86)/gnu tools arm embedded/5.2 2015q4/bin/../lib/gcc/arm-none-eabi/5.2.1/../../../../arm-none-eabi/lib/armv7-m\libc.a(lib_a-__call_atexit.o) (atexit)
c:/program files (x86)/gnu tools arm embedded/5.2 2015q4/bin/../lib/gcc/arm-none-eabi/5.2.1/../../../../arm-none-eabi/lib/armv7-m\libc.a(lib_a-fini.o)
                              c:/program files (x86)/gnu tools arm embedded/5.2 2015q4/bin/../lib/gcc/arm-none-eabi/5.2.1/../../../../arm-none-eabi/lib/armv7-m\libc.a(lib_a-__call_atexit.o) (__libc_fini_array)
c:/program files (x86)/gnu tools arm embedded/5.2 2015q4/bin/../lib/gcc/arm-none-eabi/5.2.1/../../../../arm-none-eabi/lib/armv7-m\libc.a(lib_a-memchr-stub.o)
                              c:/program files (x86)/gnu tools arm embedded/5.2 2015q4/bin/../lib/gcc/arm-none-eabi/5.2.1/../../../../arm-none-eabi/lib/armv7-m\libc.a(lib_a-strstr.o) (memchr)
c:/program files (x86)/gnu tools arm embedded/5.2 2015q4/bin/../lib/gcc/arm-none-eabi/5.2.1/../../../../arm-none-eabi/lib/armv7-m\libc.a(lib_a-memcmp.o)
                              c:/program files (x86)/gnu tools arm embedded/5.2 2015q4/bin/../lib/gcc/arm-none-eabi/5.2.1/../../../../arm-none-eabi/lib/armv7-m\libc.a(lib_a-strstr.o) (memcmp)
c:/program files (x86)/gnu tools arm embedded/5.2 2015q4/bin/../lib/gcc/arm-none-eabi/5.2.1/../../../../arm-none-eabi/lib/armv7-m\libc.a(lib_a-__atexit.o)
                              c:/program files (x86)/gnu tools arm embedded/5.2 2015q4/bin/../lib/gcc/arm-none-eabi/5.2.1/../../../../arm-none-eabi/lib/armv7-m\libc.a(lib_a-atexit.o) (__register_exitproc)

Allocating common symbols
Common symbol       size              file

SaveRState          0x2               obj/CUPDRONE/usb_int.o
acc                 0x10              obj/CUPDRONE/sensors.o
ubs_protocol_bytes  0x1               obj/CUPDRONE/gps.o
HSEStartUpStatus    0x1               obj/CUPDRONE/system_stm32f10x.o
GPS_svinfo_chn      0x10              obj/CUPDRONE/mw.o
sonarAlt            0x4               obj/CUPDRONE/imu.o
gyroADC             0x6               obj/CUPDRONE/imu.o
ubx_nav_status_bits
                    0x1               obj/CUPDRONE/gps.o
softSerialPorts     0x498             obj/CUPDRONE/drv_softserial.o
telemTemperature1   0x2               obj/CUPDRONE/mw.o
SaveState           0x2               obj/CUPDRONE/usb_init.o
f                   0x11              obj/CUPDRONE/mw.o
GPS_altitude        0x2               obj/CUPDRONE/mw.o
nav_rated           0x4               obj/CUPDRONE/mw.o
xLeadFilter         0x2               obj/CUPDRONE/gps.o
lookupThrottleRC    0x18              obj/CUPDRONE/mw.o
Thread_Handle_nrf   0x4               obj/CUPDRONE/thread_main.o
nav                 0x4               obj/CUPDRONE/mw.o
GPS_speed           0x2               obj/CUPDRONE/mw.o
GPS_hold            0x8               obj/CUPDRONE/mw.o
wIstr               0x2               obj/CUPDRONE/usb_istr.o
pProperty           0x4               obj/CUPDRONE/usb_init.o
xQueueRegistry      0x40              obj/CUPDRONE/queue.o
debug               0x8               obj/CUPDRONE/mw.o
EPindex             0x1               obj/CUPDRONE/usb_init.o
accSum              0xc               obj/CUPDRONE/imu.o
accVelScale         0x4               obj/CUPDRONE/imu.o
Hw_VCom_RxdFuncPtr  0x4               obj/CUPDRONE/drv_vcom.o
accADC              0x6               obj/CUPDRONE/imu.o
magHold             0x2               obj/CUPDRONE/sensors.o
core                0x24              obj/CUPDRONE/main.o
SaveTState          0x2               obj/CUPDRONE/usb_int.o
gyro                0x10              obj/CUPDRONE/sensors.o
gpsData             0x18              obj/CUPDRONE/gps.o
Device_Info         0x1c              obj/CUPDRONE/usb_init.o
EstAlt              0x4               obj/CUPDRONE/imu.o
rcCommand           0x8               obj/CUPDRONE/mw.o
pUser_Standard_Requests
                    0x4               obj/CUPDRONE/usb_init.o
magADC              0x6               obj/CUPDRONE/imu.o
Hw_VCom_Q_Buffer    0x401             obj/CUPDRONE/drv_vcom_q.o
vbat                0x1               obj/CUPDRONE/mw.o
yLeadFilter         0x2               obj/CUPDRONE/gps.o
cfg                 0xc4              obj/CUPDRONE/config.o
USB_Rx_Buffer       0x40              obj/CUPDRONE/usb_endp.o
baro                0x18              obj/CUPDRONE/sensors.o
USART_Rx_Buffer     0x800             obj/CUPDRONE/hw_config.o
batteryWarningVoltage
                    0x2               obj/CUPDRONE/mw.o
StatusInfo          0x2               obj/CUPDRONE/usb_core.o
pInformation        0x4               obj/CUPDRONE/usb_init.o
ResumeS             0x2               obj/CUPDRONE/usb_pwr.o
axisPID             0x6               obj/CUPDRONE/mw.o
Thread_Handle_menu  0x4               obj/CUPDRONE/thread_main.o
timerConfig         0x100             obj/CUPDRONE/drv_timer.o
GPS_distanceToHome  0x2               obj/CUPDRONE/mw.o
GPS_home            0x8               obj/CUPDRONE/mw.o
AltHold             0x4               obj/CUPDRONE/imu.o
spekFrame           0x10              obj/CUPDRONE/spektrum.o
GPS_directionToHome
                    0x2               obj/CUPDRONE/mw.o
rcOptions           0x15              obj/CUPDRONE/mw.o
mcfg                0x37c             obj/CUPDRONE/config.o
GPS_svinfo_svid     0x10              obj/CUPDRONE/mw.o
accSmooth           0x6               obj/CUPDRONE/imu.o
GPS_coord           0x8               obj/CUPDRONE/mw.o
USART_InitStructure
                    0x10              obj/CUPDRONE/hw_config.o
Hw_VCom_Q_End       0x2               obj/CUPDRONE/drv_vcom_q.o
GPS_svinfo_quality  0x10              obj/CUPDRONE/mw.o
dynI8               0x3               obj/CUPDRONE/mw.o
rssi                0x2               obj/CUPDRONE/mw.o
GPS_numSat          0x1               obj/CUPDRONE/mw.o
GPS_numCh           0x1               obj/CUPDRONE/mw.o
headFreeModeHold    0x2               obj/CUPDRONE/mw.o
motor               0x18              obj/CUPDRONE/mixer.o
rcData              0x24              obj/CUPDRONE/mw.o
Thread_Handle_mw    0x4               obj/CUPDRONE/thread_main.o
dynD8               0x3               obj/CUPDRONE/mw.o
motor_disarmed      0x18              obj/CUPDRONE/mixer.o
dynP8               0x3               obj/CUPDRONE/mw.o
Hw_VCom_Q_Start     0x2               obj/CUPDRONE/drv_vcom_q.o
GPS_svinfo_cno      0x10              obj/CUPDRONE/mw.o
EP                  0x20              obj/CUPDRONE/usb_pwr.o
EXTI_InitStructure  0x8               obj/CUPDRONE/hw_config.o
AccInflightCalibrationArmed
                    0x2               obj/CUPDRONE/mw.o
Mutex_Loop          0x4               obj/CUPDRONE/thread_main.o
lookupPitchRollRC   0xe               obj/CUPDRONE/mw.o
Hw_VCom_Q_Size      0x2               obj/CUPDRONE/drv_vcom_q.o
ubs_nav_fix_type    0x1               obj/CUPDRONE/gps.o
wInterrupt_Mask     0x2               obj/CUPDRONE/usb_init.o
EstG                0xc               obj/CUPDRONE/imu.o
heading             0x2               obj/CUPDRONE/sensors.o

Discarded input sections

 .text          0x00000000        0x0 c:/program files (x86)/gnu tools arm embedded/5.2 2015q4/bin/../lib/gcc/arm-none-eabi/5.2.1/armv7-m/crti.o
 .data          0x00000000        0x0 c:/program files (x86)/gnu tools arm embedded/5.2 2015q4/bin/../lib/gcc/arm-none-eabi/5.2.1/armv7-m/crti.o
 .bss           0x00000000        0x0 c:/program files (x86)/gnu tools arm embedded/5.2 2015q4/bin/../lib/gcc/arm-none-eabi/5.2.1/armv7-m/crti.o
 .data          0x00000000        0x4 c:/program files (x86)/gnu tools arm embedded/5.2 2015q4/bin/../lib/gcc/arm-none-eabi/5.2.1/armv7-m/crtbegin.o
 .text          0x00000000       0x74 c:/program files (x86)/gnu tools arm embedded/5.2 2015q4/bin/../lib/gcc/arm-none-eabi/5.2.1/../../../../arm-none-eabi/lib/armv7-m/crt0.o
 .data          0x00000000        0x0 c:/program files (x86)/gnu tools arm embedded/5.2 2015q4/bin/../lib/gcc/arm-none-eabi/5.2.1/../../../../arm-none-eabi/lib/armv7-m/crt0.o
 .bss           0x00000000        0x0 c:/program files (x86)/gnu tools arm embedded/5.2 2015q4/bin/../lib/gcc/arm-none-eabi/5.2.1/../../../../arm-none-eabi/lib/armv7-m/crt0.o
 .ARM.extab     0x00000000        0x0 c:/program files (x86)/gnu tools arm embedded/5.2 2015q4/bin/../lib/gcc/arm-none-eabi/5.2.1/../../../../arm-none-eabi/lib/armv7-m/crt0.o
 .ARM.exidx     0x00000000        0x8 c:/program files (x86)/gnu tools arm embedded/5.2 2015q4/bin/../lib/gcc/arm-none-eabi/5.2.1/../../../../arm-none-eabi/lib/armv7-m/crt0.o
 .ARM.attributes
                0x00000000       0x1b c:/program files (x86)/gnu tools arm embedded/5.2 2015q4/bin/../lib/gcc/arm-none-eabi/5.2.1/../../../../arm-none-eabi/lib/armv7-m/crt0.o
 .text          0x00000000        0x0 obj/CUPDRONE/drv_adc.o
 .data          0x00000000        0x0 obj/CUPDRONE/drv_adc.o
 .bss           0x00000000        0x0 obj/CUPDRONE/drv_adc.o
 .text          0x00000000        0x0 obj/CUPDRONE/drv_adxl345.o
 .data          0x00000000        0x0 obj/CUPDRONE/drv_adxl345.o
 .bss           0x00000000        0x0 obj/CUPDRONE/drv_adxl345.o
 .text          0x00000000        0x0 obj/CUPDRONE/drv_bma280.o
 .data          0x00000000        0x0 obj/CUPDRONE/drv_bma280.o
 .bss           0x00000000        0x0 obj/CUPDRONE/drv_bma280.o
 .text          0x00000000        0x0 obj/CUPDRONE/drv_bmp085.o
 .data          0x00000000        0x0 obj/CUPDRONE/drv_bmp085.o
 .bss           0x00000000        0x0 obj/CUPDRONE/drv_bmp085.o
 .text          0x00000000        0x0 obj/CUPDRONE/drv_ms5611.o
 .data          0x00000000        0x0 obj/CUPDRONE/drv_ms5611.o
 .bss           0x00000000        0x0 obj/CUPDRONE/drv_ms5611.o
 .text          0x00000000        0x0 obj/CUPDRONE/drv_hcsr04.o
 .data          0x00000000        0x0 obj/CUPDRONE/drv_hcsr04.o
 .bss           0x00000000        0x0 obj/CUPDRONE/drv_hcsr04.o
 .text          0x00000000        0x0 obj/CUPDRONE/drv_hmc5883l.o
 .data          0x00000000        0x0 obj/CUPDRONE/drv_hmc5883l.o
 .bss           0x00000000        0x0 obj/CUPDRONE/drv_hmc5883l.o
 .text          0x00000000        0x0 obj/CUPDRONE/drv_ledring.o
 .data          0x00000000        0x0 obj/CUPDRONE/drv_ledring.o
 .bss           0x00000000        0x0 obj/CUPDRONE/drv_ledring.o
 .text.ledringDetect
                0x00000000        0xa obj/CUPDRONE/drv_ledring.o
 .text.ledringState
                0x00000000       0xbc obj/CUPDRONE/drv_ledring.o
 .text.ledringBlink
                0x00000000       0x24 obj/CUPDRONE/drv_ledring.o
 .bss.state.9752
                0x00000000        0x1 obj/CUPDRONE/drv_ledring.o
 .comment       0x00000000       0x6f obj/CUPDRONE/drv_ledring.o
 .ARM.attributes
                0x00000000       0x33 obj/CUPDRONE/drv_ledring.o
 .text          0x00000000        0x0 obj/CUPDRONE/drv_mma845x.o
 .data          0x00000000        0x0 obj/CUPDRONE/drv_mma845x.o
 .bss           0x00000000        0x0 obj/CUPDRONE/drv_mma845x.o
 .text          0x00000000        0x0 obj/CUPDRONE/drv_mpu3050.o
 .data          0x00000000        0x0 obj/CUPDRONE/drv_mpu3050.o
 .bss           0x00000000        0x0 obj/CUPDRONE/drv_mpu3050.o
 .text          0x00000000        0x0 obj/CUPDRONE/drv_mpu6050.o
 .data          0x00000000        0x0 obj/CUPDRONE/drv_mpu6050.o
 .bss           0x00000000        0x0 obj/CUPDRONE/drv_mpu6050.o
 .text          0x00000000        0x0 obj/CUPDRONE/drv_l3g4200d.o
 .data          0x00000000        0x0 obj/CUPDRONE/drv_l3g4200d.o
 .bss           0x00000000        0x0 obj/CUPDRONE/drv_l3g4200d.o
 .text          0x00000000        0x0 obj/CUPDRONE/drv_pwm.o
 .data          0x00000000        0x0 obj/CUPDRONE/drv_pwm.o
 .bss           0x00000000        0x0 obj/CUPDRONE/drv_pwm.o
 .text          0x00000000        0x0 obj/CUPDRONE/drv_spi.o
 .data          0x00000000        0x0 obj/CUPDRONE/drv_spi.o
 .bss           0x00000000        0x0 obj/CUPDRONE/drv_spi.o
 .text.spiSelect
                0x00000000       0x14 obj/CUPDRONE/drv_spi.o
 .text.spiTransferByte
                0x00000000       0x28 obj/CUPDRONE/drv_spi.o
 .text          0x00000000        0x0 obj/CUPDRONE/drv_timer.o
 .data          0x00000000        0x0 obj/CUPDRONE/drv_timer.o
 .bss           0x00000000        0x0 obj/CUPDRONE/drv_timer.o
 .text          0x00000000        0x0 obj/CUPDRONE/hexairbot.o
 .data          0x00000000        0x0 obj/CUPDRONE/hexairbot.o
 .bss           0x00000000        0x0 obj/CUPDRONE/hexairbot.o
 .text          0x00000000       0x14 obj/CUPDRONE/startup_stm32f10x_md_gcc.o
 .data          0x00000000        0x0 obj/CUPDRONE/startup_stm32f10x_md_gcc.o
 .bss           0x00000000        0x0 obj/CUPDRONE/startup_stm32f10x_md_gcc.o
 .text          0x00000000        0x0 obj/CUPDRONE/buzzer.o
 .data          0x00000000        0x0 obj/CUPDRONE/buzzer.o
 .bss           0x00000000        0x0 obj/CUPDRONE/buzzer.o
 .text          0x00000000        0x0 obj/CUPDRONE/cli.o
 .data          0x00000000        0x0 obj/CUPDRONE/cli.o
 .bss           0x00000000        0x0 obj/CUPDRONE/cli.o
 .text          0x00000000        0x0 obj/CUPDRONE/config.o
 .data          0x00000000        0x0 obj/CUPDRONE/config.o
 .bss           0x00000000        0x0 obj/CUPDRONE/config.o
 .text.featureClearAll
                0x00000000        0xc obj/CUPDRONE/config.o
 .text          0x00000000        0x0 obj/CUPDRONE/gps.o
 .data          0x00000000        0x0 obj/CUPDRONE/gps.o
 .bss           0x00000000        0x0 obj/CUPDRONE/gps.o
 .text.leadFilter_clear
                0x00000000        0x6 obj/CUPDRONE/gps.o
 .text.leadFilter_getPosition
                0x00000000       0x48 obj/CUPDRONE/gps.o
 .text._update_checksum
                0x00000000       0x20 obj/CUPDRONE/gps.o
 .text          0x00000000        0x0 obj/CUPDRONE/imu.o
 .data          0x00000000        0x0 obj/CUPDRONE/imu.o
 .bss           0x00000000        0x0 obj/CUPDRONE/imu.o
 .text.normalizeV
                0x00000000       0x6a obj/CUPDRONE/imu.o
 .text          0x00000000        0x0 obj/CUPDRONE/main.o
 .data          0x00000000        0x0 obj/CUPDRONE/main.o
 .bss           0x00000000        0x0 obj/CUPDRONE/main.o
 .text.dbg_print
                0x00000000       0x1c obj/CUPDRONE/main.o
 .text          0x00000000        0x0 obj/CUPDRONE/mixer.o
 .data          0x00000000        0x0 obj/CUPDRONE/mixer.o
 .bss           0x00000000        0x0 obj/CUPDRONE/mixer.o
 .text.servoDirection
                0x00000000       0x1c obj/CUPDRONE/mixer.o
 .text          0x00000000        0x0 obj/CUPDRONE/mw.o
 .data          0x00000000        0x0 obj/CUPDRONE/mw.o
 .bss           0x00000000        0x0 obj/CUPDRONE/mw.o
 .text          0x00000000        0x0 obj/CUPDRONE/sensors.o
 .data          0x00000000        0x0 obj/CUPDRONE/sensors.o
 .bss           0x00000000        0x0 obj/CUPDRONE/sensors.o
 .text          0x00000000        0x0 obj/CUPDRONE/serial.o
 .data          0x00000000        0x0 obj/CUPDRONE/serial.o
 .bss           0x00000000        0x0 obj/CUPDRONE/serial.o
 .text          0x00000000        0x0 obj/CUPDRONE/sbus.o
 .data          0x00000000        0x0 obj/CUPDRONE/sbus.o
 .bss           0x00000000        0x0 obj/CUPDRONE/sbus.o
 .text          0x00000000        0x0 obj/CUPDRONE/sumd.o
 .data          0x00000000        0x0 obj/CUPDRONE/sumd.o
 .bss           0x00000000        0x0 obj/CUPDRONE/sumd.o
 .text          0x00000000        0x0 obj/CUPDRONE/spektrum.o
 .data          0x00000000        0x0 obj/CUPDRONE/spektrum.o
 .bss           0x00000000        0x0 obj/CUPDRONE/spektrum.o
 .text          0x00000000        0x0 obj/CUPDRONE/telemetry.o
 .data          0x00000000        0x0 obj/CUPDRONE/telemetry.o
 .bss           0x00000000        0x0 obj/CUPDRONE/telemetry.o
 .text          0x00000000        0x0 obj/CUPDRONE/drv_gpio.o
 .data          0x00000000        0x0 obj/CUPDRONE/drv_gpio.o
 .bss           0x00000000        0x0 obj/CUPDRONE/drv_gpio.o
 .text          0x00000000        0x0 obj/CUPDRONE/drv_i2c.o
 .data          0x00000000        0x0 obj/CUPDRONE/drv_i2c.o
 .bss           0x00000000        0x0 obj/CUPDRONE/drv_i2c.o
 .text          0x00000000        0x0 obj/CUPDRONE/drv_i2c_soft.o
 .data          0x00000000        0x0 obj/CUPDRONE/drv_i2c_soft.o
 .bss           0x00000000        0x0 obj/CUPDRONE/drv_i2c_soft.o
 .comment       0x00000000       0x6f obj/CUPDRONE/drv_i2c_soft.o
 .ARM.attributes
                0x00000000       0x33 obj/CUPDRONE/drv_i2c_soft.o
 .text          0x00000000        0x0 obj/CUPDRONE/drv_system.o
 .data          0x00000000        0x0 obj/CUPDRONE/drv_system.o
 .bss           0x00000000        0x0 obj/CUPDRONE/drv_system.o
 .text          0x00000000        0x0 obj/CUPDRONE/drv_serial.o
 .data          0x00000000        0x0 obj/CUPDRONE/drv_serial.o
 .bss           0x00000000        0x0 obj/CUPDRONE/drv_serial.o
 .text.serialGetBaudRate
                0x00000000        0x4 obj/CUPDRONE/drv_serial.o
 .text          0x00000000        0x0 obj/CUPDRONE/drv_softserial.o
 .data          0x00000000        0x0 obj/CUPDRONE/drv_softserial.o
 .bss           0x00000000        0x0 obj/CUPDRONE/drv_softserial.o
 .text.lookupSoftSerial
                0x00000000       0x10 obj/CUPDRONE/drv_softserial.o
 .text.resetSerialTimer
                0x00000000        0xa obj/CUPDRONE/drv_softserial.o
 .text.stopSerialTimer
                0x00000000        0xa obj/CUPDRONE/drv_softserial.o
 .text.startSerialTimer
                0x00000000        0xa obj/CUPDRONE/drv_softserial.o
 .text          0x00000000        0x0 obj/CUPDRONE/drv_uart.o
 .data          0x00000000        0x0 obj/CUPDRONE/drv_uart.o
 .bss           0x00000000        0x0 obj/CUPDRONE/drv_uart.o
 .text          0x00000000        0x0 obj/CUPDRONE/drv_vcom.o
 .data          0x00000000        0x0 obj/CUPDRONE/drv_vcom.o
 .bss           0x00000000        0x0 obj/CUPDRONE/drv_vcom.o
 .text.Hw_VCom_SetReceiveFuncISR
                0x00000000        0xc obj/CUPDRONE/drv_vcom.o
 .text.Hw_VCom_PrintEx
                0x00000000       0x12 obj/CUPDRONE/drv_vcom.o
 .text          0x00000000        0x0 obj/CUPDRONE/drv_vcom_q.o
 .data          0x00000000        0x0 obj/CUPDRONE/drv_vcom_q.o
 .bss           0x00000000        0x0 obj/CUPDRONE/drv_vcom_q.o
 .text.Hw_VCom_Q_PushReady
                0x00000000       0x18 obj/CUPDRONE/drv_vcom_q.o
 .text          0x00000000        0x0 obj/CUPDRONE/printf.o
 .data          0x00000000        0x0 obj/CUPDRONE/printf.o
 .bss           0x00000000        0x0 obj/CUPDRONE/printf.o
 .text.putcp    0x00000000        0xa obj/CUPDRONE/printf.o
 .text.tfp_sprintf
                0x00000000       0x2c obj/CUPDRONE/printf.o
 .text          0x00000000        0x0 obj/CUPDRONE/utils.o
 .data          0x00000000        0x0 obj/CUPDRONE/utils.o
 .bss           0x00000000        0x0 obj/CUPDRONE/utils.o
 .text          0x00000000        0x0 obj/CUPDRONE/system_stm32f10x.o
 .data          0x00000000        0x0 obj/CUPDRONE/system_stm32f10x.o
 .bss           0x00000000        0x0 obj/CUPDRONE/system_stm32f10x.o
 .text.SystemCoreClockUpdate
                0x00000000       0x6c obj/CUPDRONE/system_stm32f10x.o
 .data.AHBPrescTable
                0x00000000       0x10 obj/CUPDRONE/system_stm32f10x.o
 .text          0x00000000        0x0 obj/CUPDRONE/misc.o
 .data          0x00000000        0x0 obj/CUPDRONE/misc.o
 .bss           0x00000000        0x0 obj/CUPDRONE/misc.o
 .text.NVIC_SetVectorTable
                0x00000000       0x14 obj/CUPDRONE/misc.o
 .text.NVIC_SystemLPConfig
                0x00000000       0x18 obj/CUPDRONE/misc.o
 .text.SysTick_CLKSourceConfig
                0x00000000       0x18 obj/CUPDRONE/misc.o
 .text          0x00000000        0x0 obj/CUPDRONE/stm32f10x_adc.o
 .data          0x00000000        0x0 obj/CUPDRONE/stm32f10x_adc.o
 .bss           0x00000000        0x0 obj/CUPDRONE/stm32f10x_adc.o
 .text.ADC_DeInit
                0x00000000       0x60 obj/CUPDRONE/stm32f10x_adc.o
 .text.ADC_StructInit
                0x00000000       0x12 obj/CUPDRONE/stm32f10x_adc.o
 .text.ADC_ITConfig
                0x00000000       0x12 obj/CUPDRONE/stm32f10x_adc.o
 .text.ADC_GetSoftwareStartConvStatus
                0x00000000        0x8 obj/CUPDRONE/stm32f10x_adc.o
 .text.ADC_DiscModeChannelCountConfig
                0x00000000       0x10 obj/CUPDRONE/stm32f10x_adc.o
 .text.ADC_DiscModeCmd
                0x00000000       0x12 obj/CUPDRONE/stm32f10x_adc.o
 .text.ADC_ExternalTrigConvCmd
                0x00000000       0x12 obj/CUPDRONE/stm32f10x_adc.o
 .text.ADC_GetConversionValue
                0x00000000        0x6 obj/CUPDRONE/stm32f10x_adc.o
 .text.ADC_GetDualModeConversionValue
                0x00000000        0xc obj/CUPDRONE/stm32f10x_adc.o
 .text.ADC_AutoInjectedConvCmd
                0x00000000       0x12 obj/CUPDRONE/stm32f10x_adc.o
 .text.ADC_InjectedDiscModeCmd
                0x00000000       0x12 obj/CUPDRONE/stm32f10x_adc.o
 .text.ADC_ExternalTrigInjectedConvConfig
                0x00000000        0xc obj/CUPDRONE/stm32f10x_adc.o
 .text.ADC_ExternalTrigInjectedConvCmd
                0x00000000       0x12 obj/CUPDRONE/stm32f10x_adc.o
 .text.ADC_SoftwareStartInjectedConvCmd
                0x00000000       0x12 obj/CUPDRONE/stm32f10x_adc.o
 .text.ADC_GetSoftwareStartInjectedConvCmdStatus
                0x00000000        0x8 obj/CUPDRONE/stm32f10x_adc.o
 .text.ADC_InjectedChannelConfig
                0x00000000       0x58 obj/CUPDRONE/stm32f10x_adc.o
 .text.ADC_InjectedSequencerLengthConfig
                0x00000000       0x10 obj/CUPDRONE/stm32f10x_adc.o
 .text.ADC_SetInjectedOffset
                0x00000000       0x16 obj/CUPDRONE/stm32f10x_adc.o
 .text.ADC_GetInjectedConversionValue
                0x00000000       0x1a obj/CUPDRONE/stm32f10x_adc.o
 .text.ADC_AnalogWatchdogCmd
                0x00000000       0x10 obj/CUPDRONE/stm32f10x_adc.o
 .text.ADC_AnalogWatchdogThresholdsConfig
                0x00000000        0x6 obj/CUPDRONE/stm32f10x_adc.o
 .text.ADC_AnalogWatchdogSingleChannelConfig
                0x00000000        0xc obj/CUPDRONE/stm32f10x_adc.o
 .text.ADC_TempSensorVrefintCmd
                0x00000000       0x18 obj/CUPDRONE/stm32f10x_adc.o
 .text.ADC_GetFlagStatus
                0x00000000        0xc obj/CUPDRONE/stm32f10x_adc.o
 .text.ADC_ClearFlag
                0x00000000        0x6 obj/CUPDRONE/stm32f10x_adc.o
 .text.ADC_GetITStatus
                0x00000000       0x16 obj/CUPDRONE/stm32f10x_adc.o
 .text.ADC_ClearITPendingBit
                0x00000000        0x8 obj/CUPDRONE/stm32f10x_adc.o
 .text          0x00000000        0x0 obj/CUPDRONE/stm32f10x_bkp.o
 .data          0x00000000        0x0 obj/CUPDRONE/stm32f10x_bkp.o
 .bss           0x00000000        0x0 obj/CUPDRONE/stm32f10x_bkp.o
 .text.BKP_DeInit
                0x00000000       0x12 obj/CUPDRONE/stm32f10x_bkp.o
 .text.BKP_TamperPinLevelConfig
                0x00000000        0xc obj/CUPDRONE/stm32f10x_bkp.o
 .text.BKP_TamperPinCmd
                0x00000000        0xc obj/CUPDRONE/stm32f10x_bkp.o
 .text.BKP_ITConfig
                0x00000000        0xc obj/CUPDRONE/stm32f10x_bkp.o
 .text.BKP_RTCOutputConfig
                0x00000000       0x18 obj/CUPDRONE/stm32f10x_bkp.o
 .text.BKP_SetRTCCalibrationValue
                0x00000000       0x18 obj/CUPDRONE/stm32f10x_bkp.o
 .text.BKP_WriteBackupRegister
                0x00000000       0x1c obj/CUPDRONE/stm32f10x_bkp.o
 .text.BKP_ReadBackupRegister
                0x00000000       0x20 obj/CUPDRONE/stm32f10x_bkp.o
 .text.BKP_GetFlagStatus
                0x00000000        0xc obj/CUPDRONE/stm32f10x_bkp.o
 .text.BKP_ClearFlag
                0x00000000       0x14 obj/CUPDRONE/stm32f10x_bkp.o
 .text.BKP_GetITStatus
                0x00000000        0xc obj/CUPDRONE/stm32f10x_bkp.o
 .text.BKP_ClearITPendingBit
                0x00000000       0x14 obj/CUPDRONE/stm32f10x_bkp.o
 .comment       0x00000000       0x6f obj/CUPDRONE/stm32f10x_bkp.o
 .ARM.attributes
                0x00000000       0x33 obj/CUPDRONE/stm32f10x_bkp.o
 .text          0x00000000        0x0 obj/CUPDRONE/stm32f10x_can.o
 .data          0x00000000        0x0 obj/CUPDRONE/stm32f10x_can.o
 .bss           0x00000000        0x0 obj/CUPDRONE/stm32f10x_can.o
 .text.CAN_DeInit
                0x00000000       0x34 obj/CUPDRONE/stm32f10x_can.o
 .text.CAN_Init
                0x00000000       0xd6 obj/CUPDRONE/stm32f10x_can.o
 .text.CAN_FilterInit
                0x00000000       0xe4 obj/CUPDRONE/stm32f10x_can.o
 .text.CAN_StructInit
                0x00000000       0x20 obj/CUPDRONE/stm32f10x_can.o
 .text.CAN_SlaveStartBank
                0x00000000       0x3c obj/CUPDRONE/stm32f10x_can.o
 .text.CAN_DBGFreeze
                0x00000000       0x12 obj/CUPDRONE/stm32f10x_can.o
 .text.CAN_TTComModeCmd
                0x00000000       0x58 obj/CUPDRONE/stm32f10x_can.o
 .text.CAN_Transmit
                0x00000000       0x9a obj/CUPDRONE/stm32f10x_can.o
 .text.CAN_TransmitStatus
                0x00000000       0x4c obj/CUPDRONE/stm32f10x_can.o
 .text.CAN_CancelTransmit
                0x00000000       0x26 obj/CUPDRONE/stm32f10x_can.o
 .text.CAN_Receive
                0x00000000       0x96 obj/CUPDRONE/stm32f10x_can.o
 .text.CAN_FIFORelease
                0x00000000       0x16 obj/CUPDRONE/stm32f10x_can.o
 .text.CAN_MessagePending
                0x00000000       0x16 obj/CUPDRONE/stm32f10x_can.o
 .text.CAN_OperatingModeRequest
                0x00000000       0x88 obj/CUPDRONE/stm32f10x_can.o
 .text.CAN_Sleep
                0x00000000       0x1a obj/CUPDRONE/stm32f10x_can.o
 .text.CAN_WakeUp
                0x00000000       0x22 obj/CUPDRONE/stm32f10x_can.o
 .text.CAN_GetLastErrorCode
                0x00000000        0x8 obj/CUPDRONE/stm32f10x_can.o
 .text.CAN_GetReceiveErrorCounter
                0x00000000        0x6 obj/CUPDRONE/stm32f10x_can.o
 .text.CAN_GetLSBTransmitErrorCounter
                0x00000000        0x8 obj/CUPDRONE/stm32f10x_can.o
 .text.CAN_ITConfig
                0x00000000       0x10 obj/CUPDRONE/stm32f10x_can.o
 .text.CAN_GetFlagStatus
                0x00000000       0x30 obj/CUPDRONE/stm32f10x_can.o
 .text.CAN_ClearFlag
                0x00000000       0x30 obj/CUPDRONE/stm32f10x_can.o
 .text.CAN_GetITStatus
                0x00000000       0xc8 obj/CUPDRONE/stm32f10x_can.o
 .text.CAN_ClearITPendingBit
                0x00000000       0x7c obj/CUPDRONE/stm32f10x_can.o
 .comment       0x00000000       0x6f obj/CUPDRONE/stm32f10x_can.o
 .ARM.attributes
                0x00000000       0x33 obj/CUPDRONE/stm32f10x_can.o
 .text          0x00000000        0x0 obj/CUPDRONE/stm32f10x_cec.o
 .data          0x00000000        0x0 obj/CUPDRONE/stm32f10x_cec.o
 .bss           0x00000000        0x0 obj/CUPDRONE/stm32f10x_cec.o
 .text.CEC_DeInit
                0x00000000       0x1a obj/CUPDRONE/stm32f10x_cec.o
 .text.CEC_Init
                0x00000000       0x1c obj/CUPDRONE/stm32f10x_cec.o
 .text.CEC_Cmd  0x00000000       0x18 obj/CUPDRONE/stm32f10x_cec.o
 .text.CEC_ITConfig
                0x00000000        0xc obj/CUPDRONE/stm32f10x_cec.o
 .text.CEC_OwnAddressConfig
                0x00000000        0xc obj/CUPDRONE/stm32f10x_cec.o
 .text.CEC_SetPrescaler
                0x00000000        0xc obj/CUPDRONE/stm32f10x_cec.o
 .text.CEC_SendDataByte
                0x00000000        0xc obj/CUPDRONE/stm32f10x_cec.o
 .text.CEC_ReceiveDataByte
                0x00000000        0xc obj/CUPDRONE/stm32f10x_cec.o
 .text.CEC_StartOfMessage
                0x00000000        0xc obj/CUPDRONE/stm32f10x_cec.o
 .text.CEC_EndOfMessageCmd
                0x00000000        0xc obj/CUPDRONE/stm32f10x_cec.o
 .text.CEC_GetFlagStatus
                0x00000000       0x24 obj/CUPDRONE/stm32f10x_cec.o
 .text.CEC_ClearFlag
                0x00000000       0x1c obj/CUPDRONE/stm32f10x_cec.o
 .text.CEC_GetITStatus
                0x00000000       0x14 obj/CUPDRONE/stm32f10x_cec.o
 .text.CEC_ClearITPendingBit
                0x00000000       0x1c obj/CUPDRONE/stm32f10x_cec.o
 .comment       0x00000000       0x6f obj/CUPDRONE/stm32f10x_cec.o
 .ARM.attributes
                0x00000000       0x33 obj/CUPDRONE/stm32f10x_cec.o
 .text          0x00000000        0x0 obj/CUPDRONE/stm32f10x_crc.o
 .data          0x00000000        0x0 obj/CUPDRONE/stm32f10x_crc.o
 .bss           0x00000000        0x0 obj/CUPDRONE/stm32f10x_crc.o
 .text.CRC_ResetDR
                0x00000000        0xc obj/CUPDRONE/stm32f10x_crc.o
 .text.CRC_CalcCRC
                0x00000000        0xc obj/CUPDRONE/stm32f10x_crc.o
 .text.CRC_CalcBlockCRC
                0x00000000       0x1c obj/CUPDRONE/stm32f10x_crc.o
 .text.CRC_GetCRC
                0x00000000        0xc obj/CUPDRONE/stm32f10x_crc.o
 .text.CRC_SetIDRegister
                0x00000000        0xc obj/CUPDRONE/stm32f10x_crc.o
 .text.CRC_GetIDRegister
                0x00000000        0xc obj/CUPDRONE/stm32f10x_crc.o
 .comment       0x00000000       0x6f obj/CUPDRONE/stm32f10x_crc.o
 .ARM.attributes
                0x00000000       0x33 obj/CUPDRONE/stm32f10x_crc.o
 .text          0x00000000        0x0 obj/CUPDRONE/stm32f10x_dac.o
 .data          0x00000000        0x0 obj/CUPDRONE/stm32f10x_dac.o
 .bss           0x00000000        0x0 obj/CUPDRONE/stm32f10x_dac.o
 .text.DAC_DeInit
                0x00000000       0x1a obj/CUPDRONE/stm32f10x_dac.o
 .text.DAC_Init
                0x00000000       0x2c obj/CUPDRONE/stm32f10x_dac.o
 .text.DAC_StructInit
                0x00000000        0xc obj/CUPDRONE/stm32f10x_dac.o
 .text.DAC_Cmd  0x00000000       0x20 obj/CUPDRONE/stm32f10x_dac.o
 .text.DAC_DMACmd
                0x00000000       0x20 obj/CUPDRONE/stm32f10x_dac.o
 .text.DAC_SoftwareTriggerCmd
                0x00000000       0x20 obj/CUPDRONE/stm32f10x_dac.o
 .text.DAC_DualSoftwareTriggerCmd
                0x00000000       0x18 obj/CUPDRONE/stm32f10x_dac.o
 .text.DAC_WaveGenerationCmd
                0x00000000       0x1c obj/CUPDRONE/stm32f10x_dac.o
 .text.DAC_SetChannel1Data
                0x00000000       0x20 obj/CUPDRONE/stm32f10x_dac.o
 .text.DAC_SetChannel2Data
                0x00000000       0x20 obj/CUPDRONE/stm32f10x_dac.o
 .text.DAC_SetDualChannelData
                0x00000000       0x18 obj/CUPDRONE/stm32f10x_dac.o
 .text.DAC_GetDataOutputValue
                0x00000000       0x24 obj/CUPDRONE/stm32f10x_dac.o
 .comment       0x00000000       0x6f obj/CUPDRONE/stm32f10x_dac.o
 .ARM.attributes
                0x00000000       0x33 obj/CUPDRONE/stm32f10x_dac.o
 .text          0x00000000        0x0 obj/CUPDRONE/stm32f10x_dbgmcu.o
 .data          0x00000000        0x0 obj/CUPDRONE/stm32f10x_dbgmcu.o
 .bss           0x00000000        0x0 obj/CUPDRONE/stm32f10x_dbgmcu.o
 .text.DBGMCU_GetREVID
                0x00000000        0xc obj/CUPDRONE/stm32f10x_dbgmcu.o
 .text.DBGMCU_GetDEVID
                0x00000000       0x10 obj/CUPDRONE/stm32f10x_dbgmcu.o
 .text.DBGMCU_Config
                0x00000000       0x18 obj/CUPDRONE/stm32f10x_dbgmcu.o
 .comment       0x00000000       0x6f obj/CUPDRONE/stm32f10x_dbgmcu.o
 .ARM.attributes
                0x00000000       0x33 obj/CUPDRONE/stm32f10x_dbgmcu.o
 .text          0x00000000        0x0 obj/CUPDRONE/stm32f10x_dma.o
 .data          0x00000000        0x0 obj/CUPDRONE/stm32f10x_dma.o
 .bss           0x00000000        0x0 obj/CUPDRONE/stm32f10x_dma.o
 .text.DMA_GetITStatus
                0x00000000       0x1c obj/CUPDRONE/stm32f10x_dma.o
 .text.DMA_GetFlagStatus
                0x00000000        0x4 obj/CUPDRONE/stm32f10x_dma.o
 .text.DMA_ClearFlag
                0x00000000        0x4 obj/CUPDRONE/stm32f10x_dma.o
 .text          0x00000000        0x0 obj/CUPDRONE/stm32f10x_exti.o
 .data          0x00000000        0x0 obj/CUPDRONE/stm32f10x_exti.o
 .bss           0x00000000        0x0 obj/CUPDRONE/stm32f10x_exti.o
 .text.EXTI_DeInit
                0x00000000       0x1c obj/CUPDRONE/stm32f10x_exti.o
 .text.EXTI_StructInit
                0x00000000        0xe obj/CUPDRONE/stm32f10x_exti.o
 .text.EXTI_GenerateSWInterrupt
                0x00000000       0x10 obj/CUPDRONE/stm32f10x_exti.o
 .text.EXTI_GetFlagStatus
                0x00000000       0x14 obj/CUPDRONE/stm32f10x_exti.o
 .text.EXTI_ClearFlag
                0x00000000        0xc obj/CUPDRONE/stm32f10x_exti.o
 .text          0x00000000        0x0 obj/CUPDRONE/stm32f10x_flash.o
 .data          0x00000000        0x0 obj/CUPDRONE/stm32f10x_flash.o
 .bss           0x00000000        0x0 obj/CUPDRONE/stm32f10x_flash.o
 .text.FLASH_HalfCycleAccessCmd
                0x00000000       0x18 obj/CUPDRONE/stm32f10x_flash.o
 .text.FLASH_GetUserOptionByte
                0x00000000        0xc obj/CUPDRONE/stm32f10x_flash.o
 .text.FLASH_GetWriteProtectionOptionByte
                0x00000000        0xc obj/CUPDRONE/stm32f10x_flash.o
 .text.FLASH_GetReadOutProtectionStatus
                0x00000000       0x10 obj/CUPDRONE/stm32f10x_flash.o
 .text.FLASH_GetPrefetchBufferStatus
                0x00000000       0x10 obj/CUPDRONE/stm32f10x_flash.o
 .text.FLASH_ITConfig
                0x00000000       0x18 obj/CUPDRONE/stm32f10x_flash.o
 .text.FLASH_GetFlagStatus
                0x00000000       0x20 obj/CUPDRONE/stm32f10x_flash.o
 .text.FLASH_GetStatus
                0x00000000       0x28 obj/CUPDRONE/stm32f10x_flash.o
 .text.FLASH_EraseAllBank1Pages
                0x00000000       0x38 obj/CUPDRONE/stm32f10x_flash.o
 .text.FLASH_EraseAllPages
                0x00000000        0x4 obj/CUPDRONE/stm32f10x_flash.o
 .text.FLASH_UserOptionByteConfig
                0x00000000       0x5c obj/CUPDRONE/stm32f10x_flash.o
 .text.FLASH_ReadOutProtection
                0x00000000       0x8c obj/CUPDRONE/stm32f10x_flash.o
 .text.FLASH_EnableWriteProtection
                0x00000000       0xa8 obj/CUPDRONE/stm32f10x_flash.o
 .text.FLASH_ProgramOptionByteData
                0x00000000       0x4c obj/CUPDRONE/stm32f10x_flash.o
 .text.FLASH_ProgramHalfWord
                0x00000000       0x38 obj/CUPDRONE/stm32f10x_flash.o
 .text.FLASH_EraseOptionBytes
                0x00000000       0x7c obj/CUPDRONE/stm32f10x_flash.o
 .text.FLASH_WaitForLastOperation
                0x00000000        0x4 obj/CUPDRONE/stm32f10x_flash.o
 .text          0x00000000        0x0 obj/CUPDRONE/stm32f10x_fsmc.o
 .data          0x00000000        0x0 obj/CUPDRONE/stm32f10x_fsmc.o
 .bss           0x00000000        0x0 obj/CUPDRONE/stm32f10x_fsmc.o
 .text.FSMC_NORSRAMDeInit
                0x00000000       0x28 obj/CUPDRONE/stm32f10x_fsmc.o
 .text.FSMC_NANDDeInit
                0x00000000       0x24 obj/CUPDRONE/stm32f10x_fsmc.o
 .text.FSMC_PCCARDDeInit
                0x00000000       0x1c obj/CUPDRONE/stm32f10x_fsmc.o
 .text.FSMC_NORSRAMInit
                0x00000000       0xb8 obj/CUPDRONE/stm32f10x_fsmc.o
 .text.FSMC_NANDInit
                0x00000000       0x70 obj/CUPDRONE/stm32f10x_fsmc.o
 .text.FSMC_PCCARDInit
                0x00000000       0x68 obj/CUPDRONE/stm32f10x_fsmc.o
 .text.FSMC_NORSRAMStructInit
                0x00000000       0x4e obj/CUPDRONE/stm32f10x_fsmc.o
 .text.FSMC_NANDStructInit
                0x00000000       0x2a obj/CUPDRONE/stm32f10x_fsmc.o
 .text.FSMC_PCCARDStructInit
                0x00000000       0x2a obj/CUPDRONE/stm32f10x_fsmc.o
 .text.FSMC_NORSRAMCmd
                0x00000000       0x20 obj/CUPDRONE/stm32f10x_fsmc.o
 .text.FSMC_NANDCmd
                0x00000000       0x30 obj/CUPDRONE/stm32f10x_fsmc.o
 .text.FSMC_PCCARDCmd
                0x00000000       0x20 obj/CUPDRONE/stm32f10x_fsmc.o
 .text.FSMC_NANDECCCmd
                0x00000000       0x30 obj/CUPDRONE/stm32f10x_fsmc.o
 .text.FSMC_GetECC
                0x00000000       0x14 obj/CUPDRONE/stm32f10x_fsmc.o
 .text.FSMC_ITConfig
                0x00000000       0x4c obj/CUPDRONE/stm32f10x_fsmc.o
 .text.FSMC_GetFlagStatus
                0x00000000       0x2c obj/CUPDRONE/stm32f10x_fsmc.o
 .text.FSMC_ClearFlag
                0x00000000       0x2c obj/CUPDRONE/stm32f10x_fsmc.o
 .text.FSMC_GetITStatus
                0x00000000       0x34 obj/CUPDRONE/stm32f10x_fsmc.o
 .text.FSMC_ClearITPendingBit
                0x00000000       0x2c obj/CUPDRONE/stm32f10x_fsmc.o
 .comment       0x00000000       0x6f obj/CUPDRONE/stm32f10x_fsmc.o
 .ARM.attributes
                0x00000000       0x33 obj/CUPDRONE/stm32f10x_fsmc.o
 .text          0x00000000        0x0 obj/CUPDRONE/stm32f10x_gpio.o
 .data          0x00000000        0x0 obj/CUPDRONE/stm32f10x_gpio.o
 .bss           0x00000000        0x0 obj/CUPDRONE/stm32f10x_gpio.o
 .text.GPIO_DeInit
                0x00000000       0xb8 obj/CUPDRONE/stm32f10x_gpio.o
 .text.GPIO_AFIODeInit
                0x00000000       0x16 obj/CUPDRONE/stm32f10x_gpio.o
 .text.GPIO_StructInit
                0x00000000       0x10 obj/CUPDRONE/stm32f10x_gpio.o
 .text.GPIO_ReadInputDataBit
                0x00000000        0xc obj/CUPDRONE/stm32f10x_gpio.o
 .text.GPIO_ReadInputData
                0x00000000        0x6 obj/CUPDRONE/stm32f10x_gpio.o
 .text.GPIO_ReadOutputDataBit
                0x00000000        0xc obj/CUPDRONE/stm32f10x_gpio.o
 .text.GPIO_ReadOutputData
                0x00000000        0x6 obj/CUPDRONE/stm32f10x_gpio.o
 .text.GPIO_WriteBit
                0x00000000        0xa obj/CUPDRONE/stm32f10x_gpio.o
 .text.GPIO_Write
                0x00000000        0x4 obj/CUPDRONE/stm32f10x_gpio.o
 .text.GPIO_PinLockConfig
                0x00000000       0x10 obj/CUPDRONE/stm32f10x_gpio.o
 .text.GPIO_EventOutputConfig
                0x00000000       0x1c obj/CUPDRONE/stm32f10x_gpio.o
 .text.GPIO_EventOutputCmd
                0x00000000        0xc obj/CUPDRONE/stm32f10x_gpio.o
 .text.GPIO_PinRemapConfig
                0x00000000       0x60 obj/CUPDRONE/stm32f10x_gpio.o
 .text.GPIO_EXTILineConfig
                0x00000000       0x2a obj/CUPDRONE/stm32f10x_gpio.o
 .text.GPIO_ETH_MediaInterfaceConfig
                0x00000000        0xc obj/CUPDRONE/stm32f10x_gpio.o
 .text          0x00000000        0x0 obj/CUPDRONE/stm32f10x_i2c.o
 .data          0x00000000        0x0 obj/CUPDRONE/stm32f10x_i2c.o
 .bss           0x00000000        0x0 obj/CUPDRONE/stm32f10x_i2c.o
 .text.I2C_DMACmd
                0x00000000       0x18 obj/CUPDRONE/stm32f10x_i2c.o
 .text.I2C_DMALastTransferCmd
                0x00000000       0x18 obj/CUPDRONE/stm32f10x_i2c.o
 .text.I2C_OwnAddress2Config
                0x00000000       0x12 obj/CUPDRONE/stm32f10x_i2c.o
 .text.I2C_DualAddressCmd
                0x00000000       0x18 obj/CUPDRONE/stm32f10x_i2c.o
 .text.I2C_GeneralCallCmd
                0x00000000       0x18 obj/CUPDRONE/stm32f10x_i2c.o
 .text.I2C_ReadRegister
                0x00000000       0x18 obj/CUPDRONE/stm32f10x_i2c.o
 .text.I2C_SoftwareResetCmd
                0x00000000       0x18 obj/CUPDRONE/stm32f10x_i2c.o
 .text.I2C_SMBusAlertConfig
                0x00000000       0x1c obj/CUPDRONE/stm32f10x_i2c.o
 .text.I2C_TransmitPEC
                0x00000000       0x18 obj/CUPDRONE/stm32f10x_i2c.o
 .text.I2C_PECPositionConfig
                0x00000000       0x1c obj/CUPDRONE/stm32f10x_i2c.o
 .text.I2C_NACKPositionConfig
                0x00000000        0x4 obj/CUPDRONE/stm32f10x_i2c.o
 .text.I2C_CalculatePEC
                0x00000000       0x18 obj/CUPDRONE/stm32f10x_i2c.o
 .text.I2C_GetPEC
                0x00000000        0x8 obj/CUPDRONE/stm32f10x_i2c.o
 .text.I2C_ARPCmd
                0x00000000       0x18 obj/CUPDRONE/stm32f10x_i2c.o
 .text.I2C_StretchClockCmd
                0x00000000       0x18 obj/CUPDRONE/stm32f10x_i2c.o
 .text.I2C_FastModeDutyCycleConfig
                0x00000000       0x1c obj/CUPDRONE/stm32f10x_i2c.o
 .text.I2C_CheckEvent
                0x00000000       0x1a obj/CUPDRONE/stm32f10x_i2c.o
 .text.I2C_GetLastEvent
                0x00000000       0x10 obj/CUPDRONE/stm32f10x_i2c.o
 .text.I2C_GetFlagStatus
                0x00000000       0x34 obj/CUPDRONE/stm32f10x_i2c.o
 .text.I2C_ClearFlag
                0x00000000        0x8 obj/CUPDRONE/stm32f10x_i2c.o
 .text.I2C_GetITStatus
                0x00000000       0x1c obj/CUPDRONE/stm32f10x_i2c.o
 .text.I2C_ClearITPendingBit
                0x00000000        0x8 obj/CUPDRONE/stm32f10x_i2c.o
 .text          0x00000000        0x0 obj/CUPDRONE/stm32f10x_iwdg.o
 .data          0x00000000        0x0 obj/CUPDRONE/stm32f10x_iwdg.o
 .bss           0x00000000        0x0 obj/CUPDRONE/stm32f10x_iwdg.o
 .text.IWDG_WriteAccessCmd
                0x00000000        0xc obj/CUPDRONE/stm32f10x_iwdg.o
 .text.IWDG_SetPrescaler
                0x00000000        0xc obj/CUPDRONE/stm32f10x_iwdg.o
 .text.IWDG_SetReload
                0x00000000        0xc obj/CUPDRONE/stm32f10x_iwdg.o
 .text.IWDG_ReloadCounter
                0x00000000       0x10 obj/CUPDRONE/stm32f10x_iwdg.o
 .text.IWDG_Enable
                0x00000000       0x10 obj/CUPDRONE/stm32f10x_iwdg.o
 .text.IWDG_GetFlagStatus
                0x00000000       0x14 obj/CUPDRONE/stm32f10x_iwdg.o
 .comment       0x00000000       0x6f obj/CUPDRONE/stm32f10x_iwdg.o
 .ARM.attributes
                0x00000000       0x33 obj/CUPDRONE/stm32f10x_iwdg.o
 .text          0x00000000        0x0 obj/CUPDRONE/stm32f10x_pwr.o
 .data          0x00000000        0x0 obj/CUPDRONE/stm32f10x_pwr.o
 .bss           0x00000000        0x0 obj/CUPDRONE/stm32f10x_pwr.o
 .text.PWR_DeInit
                0x00000000       0x1a obj/CUPDRONE/stm32f10x_pwr.o
 .text.PWR_BackupAccessCmd
                0x00000000        0xc obj/CUPDRONE/stm32f10x_pwr.o
 .text.PWR_PVDCmd
                0x00000000        0xc obj/CUPDRONE/stm32f10x_pwr.o
 .text.PWR_PVDLevelConfig
                0x00000000       0x14 obj/CUPDRONE/stm32f10x_pwr.o
 .text.PWR_WakeUpPinCmd
                0x00000000        0xc obj/CUPDRONE/stm32f10x_pwr.o
 .text.PWR_EnterSTOPMode
                0x00000000       0x34 obj/CUPDRONE/stm32f10x_pwr.o
 .text.PWR_EnterSTANDBYMode
                0x00000000       0x28 obj/CUPDRONE/stm32f10x_pwr.o
 .text.PWR_GetFlagStatus
                0x00000000       0x14 obj/CUPDRONE/stm32f10x_pwr.o
 .text.PWR_ClearFlag
                0x00000000       0x10 obj/CUPDRONE/stm32f10x_pwr.o
 .comment       0x00000000       0x6f obj/CUPDRONE/stm32f10x_pwr.o
 .ARM.attributes
                0x00000000       0x33 obj/CUPDRONE/stm32f10x_pwr.o
 .text          0x00000000        0x0 obj/CUPDRONE/stm32f10x_rcc.o
 .data          0x00000000        0x0 obj/CUPDRONE/stm32f10x_rcc.o
 .bss           0x00000000        0x0 obj/CUPDRONE/stm32f10x_rcc.o
 .text.RCC_AdjustHSICalibrationValue
                0x00000000       0x14 obj/CUPDRONE/stm32f10x_rcc.o
 .text.RCC_HSICmd
                0x00000000        0xc obj/CUPDRONE/stm32f10x_rcc.o
 .text.RCC_ITConfig
                0x00000000       0x18 obj/CUPDRONE/stm32f10x_rcc.o
 .text.RCC_ADCCLKConfig
                0x00000000       0x14 obj/CUPDRONE/stm32f10x_rcc.o
 .text.RCC_LSEConfig
                0x00000000       0x20 obj/CUPDRONE/stm32f10x_rcc.o
 .text.RCC_LSICmd
                0x00000000        0xc obj/CUPDRONE/stm32f10x_rcc.o
 .text.RCC_RTCCLKConfig
                0x00000000       0x10 obj/CUPDRONE/stm32f10x_rcc.o
 .text.RCC_RTCCLKCmd
                0x00000000        0xc obj/CUPDRONE/stm32f10x_rcc.o
 .text.RCC_BackupResetCmd
                0x00000000        0xc obj/CUPDRONE/stm32f10x_rcc.o
 .text.RCC_ClockSecuritySystemCmd
                0x00000000        0xc obj/CUPDRONE/stm32f10x_rcc.o
 .text.RCC_MCOConfig
                0x00000000        0xc obj/CUPDRONE/stm32f10x_rcc.o
 .text.RCC_GetITStatus
                0x00000000       0x14 obj/CUPDRONE/stm32f10x_rcc.o
 .text.RCC_ClearITPendingBit
                0x00000000        0xc obj/CUPDRONE/stm32f10x_rcc.o
 .text          0x00000000        0x0 obj/CUPDRONE/stm32f10x_rtc.o
 .data          0x00000000        0x0 obj/CUPDRONE/stm32f10x_rtc.o
 .bss           0x00000000        0x0 obj/CUPDRONE/stm32f10x_rtc.o
 .text.RTC_ITConfig
                0x00000000       0x18 obj/CUPDRONE/stm32f10x_rtc.o
 .text.RTC_EnterConfigMode
                0x00000000       0x14 obj/CUPDRONE/stm32f10x_rtc.o
 .text.RTC_ExitConfigMode
                0x00000000       0x14 obj/CUPDRONE/stm32f10x_rtc.o
 .text.RTC_GetCounter
                0x00000000       0x14 obj/CUPDRONE/stm32f10x_rtc.o
 .text.RTC_SetCounter
                0x00000000       0x1c obj/CUPDRONE/stm32f10x_rtc.o
 .text.RTC_SetPrescaler
                0x00000000       0x20 obj/CUPDRONE/stm32f10x_rtc.o
 .text.RTC_SetAlarm
                0x00000000       0x1c obj/CUPDRONE/stm32f10x_rtc.o
 .text.RTC_GetDivider
                0x00000000       0x18 obj/CUPDRONE/stm32f10x_rtc.o
 .text.RTC_WaitForLastTask
                0x00000000       0x10 obj/CUPDRONE/stm32f10x_rtc.o
 .text.RTC_WaitForSynchro
                0x00000000       0x1c obj/CUPDRONE/stm32f10x_rtc.o
 .text.RTC_GetFlagStatus
                0x00000000       0x14 obj/CUPDRONE/stm32f10x_rtc.o
 .text.RTC_GetITStatus
                0x00000000       0x20 obj/CUPDRONE/stm32f10x_rtc.o
 .text.RTC_ClearITPendingBit
                0x00000000       0x14 obj/CUPDRONE/stm32f10x_rtc.o
 .text.RTC_ClearFlag
                0x00000000        0x4 obj/CUPDRONE/stm32f10x_rtc.o
 .comment       0x00000000       0x6f obj/CUPDRONE/stm32f10x_rtc.o
 .ARM.attributes
                0x00000000       0x33 obj/CUPDRONE/stm32f10x_rtc.o
 .text          0x00000000        0x0 obj/CUPDRONE/stm32f10x_sdio.o
 .data          0x00000000        0x0 obj/CUPDRONE/stm32f10x_sdio.o
 .bss           0x00000000        0x0 obj/CUPDRONE/stm32f10x_sdio.o
 .text.SDIO_DeInit
                0x00000000       0x24 obj/CUPDRONE/stm32f10x_sdio.o
 .text.SDIO_Init
                0x00000000       0x30 obj/CUPDRONE/stm32f10x_sdio.o
 .text.SDIO_StructInit
                0x00000000       0x10 obj/CUPDRONE/stm32f10x_sdio.o
 .text.SDIO_ClockCmd
                0x00000000        0xc obj/CUPDRONE/stm32f10x_sdio.o
 .text.SDIO_SetPowerState
                0x00000000       0x18 obj/CUPDRONE/stm32f10x_sdio.o
 .text.SDIO_GetPowerState
                0x00000000       0x10 obj/CUPDRONE/stm32f10x_sdio.o
 .text.SDIO_ITConfig
                0x00000000       0x18 obj/CUPDRONE/stm32f10x_sdio.o
 .text.SDIO_DMACmd
                0x00000000        0xc obj/CUPDRONE/stm32f10x_sdio.o
 .text.SDIO_SendCommand
                0x00000000       0x2c obj/CUPDRONE/stm32f10x_sdio.o
 .text.SDIO_CmdStructInit
                0x00000000        0xe obj/CUPDRONE/stm32f10x_sdio.o
 .text.SDIO_GetCommandResponse
                0x00000000        0xc obj/CUPDRONE/stm32f10x_sdio.o
 .text.SDIO_GetResponse
                0x00000000       0x18 obj/CUPDRONE/stm32f10x_sdio.o
 .text.SDIO_DataConfig
                0x00000000       0x2c obj/CUPDRONE/stm32f10x_sdio.o
 .text.SDIO_DataStructInit
                0x00000000       0x14 obj/CUPDRONE/stm32f10x_sdio.o
 .text.SDIO_GetDataCounter
                0x00000000        0xc obj/CUPDRONE/stm32f10x_sdio.o
 .text.SDIO_ReadData
                0x00000000        0xc obj/CUPDRONE/stm32f10x_sdio.o
 .text.SDIO_WriteData
                0x00000000        0xc obj/CUPDRONE/stm32f10x_sdio.o
 .text.SDIO_GetFIFOCount
                0x00000000        0xc obj/CUPDRONE/stm32f10x_sdio.o
 .text.SDIO_StartSDIOReadWait
                0x00000000        0xc obj/CUPDRONE/stm32f10x_sdio.o
 .text.SDIO_StopSDIOReadWait
                0x00000000        0xc obj/CUPDRONE/stm32f10x_sdio.o
 .text.SDIO_SetSDIOReadWaitMode
                0x00000000        0xc obj/CUPDRONE/stm32f10x_sdio.o
 .text.SDIO_SetSDIOOperation
                0x00000000        0xc obj/CUPDRONE/stm32f10x_sdio.o
 .text.SDIO_SendSDIOSuspendCmd
                0x00000000        0xc obj/CUPDRONE/stm32f10x_sdio.o
 .text.SDIO_CommandCompletionCmd
                0x00000000        0xc obj/CUPDRONE/stm32f10x_sdio.o
 .text.SDIO_CEATAITCmd
                0x00000000       0x14 obj/CUPDRONE/stm32f10x_sdio.o
 .text.SDIO_SendCEATACmd
                0x00000000        0xc obj/CUPDRONE/stm32f10x_sdio.o
 .text.SDIO_ClearFlag
                0x00000000        0xc obj/CUPDRONE/stm32f10x_sdio.o
 .text.SDIO_GetITStatus
                0x00000000       0x14 obj/CUPDRONE/stm32f10x_sdio.o
 .text.SDIO_GetFlagStatus
                0x00000000        0x4 obj/CUPDRONE/stm32f10x_sdio.o
 .text.SDIO_ClearITPendingBit
                0x00000000        0xc obj/CUPDRONE/stm32f10x_sdio.o
 .comment       0x00000000       0x6f obj/CUPDRONE/stm32f10x_sdio.o
 .ARM.attributes
                0x00000000       0x33 obj/CUPDRONE/stm32f10x_sdio.o
 .text          0x00000000        0x0 obj/CUPDRONE/stm32f10x_spi.o
 .data          0x00000000        0x0 obj/CUPDRONE/stm32f10x_spi.o
 .bss           0x00000000        0x0 obj/CUPDRONE/stm32f10x_spi.o
 .text.I2S_Init
                0x00000000       0xa2 obj/CUPDRONE/stm32f10x_spi.o
 .text.SPI_StructInit
                0x00000000       0x18 obj/CUPDRONE/stm32f10x_spi.o
 .text.I2S_StructInit
                0x00000000       0x12 obj/CUPDRONE/stm32f10x_spi.o
 .text.I2S_Cmd  0x00000000       0x18 obj/CUPDRONE/stm32f10x_spi.o
 .text.SPI_I2S_ITConfig
                0x00000000       0x1c obj/CUPDRONE/stm32f10x_spi.o
 .text.SPI_I2S_DMACmd
                0x00000000       0x12 obj/CUPDRONE/stm32f10x_spi.o
 .text.SPI_NSSInternalSoftwareConfig
                0x00000000       0x1e obj/CUPDRONE/stm32f10x_spi.o
 .text.SPI_SSOutputCmd
                0x00000000       0x18 obj/CUPDRONE/stm32f10x_spi.o
 .text.SPI_DataSizeConfig
                0x00000000       0x16 obj/CUPDRONE/stm32f10x_spi.o
 .text.SPI_TransmitCRC
                0x00000000        0xc obj/CUPDRONE/stm32f10x_spi.o
 .text.SPI_CalculateCRC
                0x00000000       0x18 obj/CUPDRONE/stm32f10x_spi.o
 .text.SPI_GetCRC
                0x00000000        0xc obj/CUPDRONE/stm32f10x_spi.o
 .text.SPI_GetCRCPolynomial
                0x00000000        0x6 obj/CUPDRONE/stm32f10x_spi.o
 .text.SPI_BiDirectionalLineConfig
                0x00000000       0x1c obj/CUPDRONE/stm32f10x_spi.o
 .text.SPI_I2S_ClearFlag
                0x00000000        0x8 obj/CUPDRONE/stm32f10x_spi.o
 .text.SPI_I2S_GetITStatus
                0x00000000       0x26 obj/CUPDRONE/stm32f10x_spi.o
 .text.SPI_I2S_ClearITPendingBit
                0x00000000       0x12 obj/CUPDRONE/stm32f10x_spi.o
 .text          0x00000000        0x0 obj/CUPDRONE/stm32f10x_tim.o
 .data          0x00000000        0x0 obj/CUPDRONE/stm32f10x_tim.o
 .bss           0x00000000        0x0 obj/CUPDRONE/stm32f10x_tim.o
 .text.TIM_DeInit
                0x00000000      0x1c8 obj/CUPDRONE/stm32f10x_tim.o
 .text.TIM_BDTRConfig
                0x00000000       0x22 obj/CUPDRONE/stm32f10x_tim.o
 .text.TIM_BDTRStructInit
                0x00000000       0x12 obj/CUPDRONE/stm32f10x_tim.o
 .text.TIM_GenerateEvent
                0x00000000        0x4 obj/CUPDRONE/stm32f10x_tim.o
 .text.TIM_DMAConfig
                0x00000000        0x8 obj/CUPDRONE/stm32f10x_tim.o
 .text.TIM_InternalClockConfig
                0x00000000        0xe obj/CUPDRONE/stm32f10x_tim.o
 .text.TIM_ITRxExternalClockConfig
                0x00000000       0x1a obj/CUPDRONE/stm32f10x_tim.o
 .text.TIM_TIxExternalClockConfig
                0x00000000       0x34 obj/CUPDRONE/stm32f10x_tim.o
 .text.TIM_ETRConfig
                0x00000000       0x14 obj/CUPDRONE/stm32f10x_tim.o
 .text.TIM_ETRClockMode1Config
                0x00000000       0x18 obj/CUPDRONE/stm32f10x_tim.o
 .text.TIM_ETRClockMode2Config
                0x00000000       0x12 obj/CUPDRONE/stm32f10x_tim.o
 .text.TIM_PrescalerConfig
                0x00000000        0x6 obj/CUPDRONE/stm32f10x_tim.o
 .text.TIM_CounterModeConfig
                0x00000000       0x10 obj/CUPDRONE/stm32f10x_tim.o
 .text.TIM_SelectInputTrigger
                0x00000000       0x10 obj/CUPDRONE/stm32f10x_tim.o
 .text.TIM_EncoderInterfaceConfig
                0x00000000       0x3c obj/CUPDRONE/stm32f10x_tim.o
 .text.TIM_ForcedOC1Config
                0x00000000       0x10 obj/CUPDRONE/stm32f10x_tim.o
 .text.TIM_ForcedOC2Config
                0x00000000       0x14 obj/CUPDRONE/stm32f10x_tim.o
 .text.TIM_ForcedOC3Config
                0x00000000       0x10 obj/CUPDRONE/stm32f10x_tim.o
 .text.TIM_ForcedOC4Config
                0x00000000       0x14 obj/CUPDRONE/stm32f10x_tim.o
 .text.TIM_ARRPreloadConfig
                0x00000000       0x18 obj/CUPDRONE/stm32f10x_tim.o
 .text.TIM_SelectCOM
                0x00000000       0x18 obj/CUPDRONE/stm32f10x_tim.o
 .text.TIM_SelectCCDMA
                0x00000000       0x18 obj/CUPDRONE/stm32f10x_tim.o
 .text.TIM_CCPreloadControl
                0x00000000       0x18 obj/CUPDRONE/stm32f10x_tim.o
 .text.TIM_OC1FastConfig
                0x00000000       0x10 obj/CUPDRONE/stm32f10x_tim.o
 .text.TIM_OC2FastConfig
                0x00000000       0x14 obj/CUPDRONE/stm32f10x_tim.o
 .text.TIM_OC3FastConfig
                0x00000000       0x10 obj/CUPDRONE/stm32f10x_tim.o
 .text.TIM_OC4FastConfig
                0x00000000       0x14 obj/CUPDRONE/stm32f10x_tim.o
 .text.TIM_ClearOC1Ref
                0x00000000       0x10 obj/CUPDRONE/stm32f10x_tim.o
 .text.TIM_ClearOC2Ref
                0x00000000       0x10 obj/CUPDRONE/stm32f10x_tim.o
 .text.TIM_ClearOC3Ref
                0x00000000       0x10 obj/CUPDRONE/stm32f10x_tim.o
 .text.TIM_ClearOC4Ref
                0x00000000       0x10 obj/CUPDRONE/stm32f10x_tim.o
 .text.TIM_OC1PolarityConfig
                0x00000000       0x10 obj/CUPDRONE/stm32f10x_tim.o
 .text.TIM_OC1NPolarityConfig
                0x00000000       0x10 obj/CUPDRONE/stm32f10x_tim.o
 .text.TIM_OC2PolarityConfig
                0x00000000       0x14 obj/CUPDRONE/stm32f10x_tim.o
 .text.TIM_OC2NPolarityConfig
                0x00000000       0x14 obj/CUPDRONE/stm32f10x_tim.o
 .text.TIM_OC3PolarityConfig
                0x00000000       0x14 obj/CUPDRONE/stm32f10x_tim.o
 .text.TIM_OC3NPolarityConfig
                0x00000000       0x14 obj/CUPDRONE/stm32f10x_tim.o
 .text.TIM_OC4PolarityConfig
                0x00000000       0x14 obj/CUPDRONE/stm32f10x_tim.o
 .text.TIM_CCxCmd
                0x00000000       0x1c obj/CUPDRONE/stm32f10x_tim.o
 .text.TIM_CCxNCmd
                0x00000000       0x1c obj/CUPDRONE/stm32f10x_tim.o
 .text.TIM_SelectOCxM
                0x00000000       0x42 obj/CUPDRONE/stm32f10x_tim.o
 .text.TIM_UpdateDisableConfig
                0x00000000       0x18 obj/CUPDRONE/stm32f10x_tim.o
 .text.TIM_UpdateRequestConfig
                0x00000000       0x18 obj/CUPDRONE/stm32f10x_tim.o
 .text.TIM_SelectHallSensor
                0x00000000       0x18 obj/CUPDRONE/stm32f10x_tim.o
 .text.TIM_SelectOnePulseMode
                0x00000000       0x16 obj/CUPDRONE/stm32f10x_tim.o
 .text.TIM_SelectOutputTrigger
                0x00000000       0x16 obj/CUPDRONE/stm32f10x_tim.o
 .text.TIM_SelectSlaveMode
                0x00000000       0x16 obj/CUPDRONE/stm32f10x_tim.o
 .text.TIM_SelectMasterSlaveMode
                0x00000000       0x16 obj/CUPDRONE/stm32f10x_tim.o
 .text.TIM_SetCounter
                0x00000000        0x4 obj/CUPDRONE/stm32f10x_tim.o
 .text.TIM_SetAutoreload
                0x00000000        0x4 obj/CUPDRONE/stm32f10x_tim.o
 .text.TIM_SetCompare1
                0x00000000        0x4 obj/CUPDRONE/stm32f10x_tim.o
 .text.TIM_SetCompare2
                0x00000000        0x4 obj/CUPDRONE/stm32f10x_tim.o
 .text.TIM_SetCompare3
                0x00000000        0x4 obj/CUPDRONE/stm32f10x_tim.o
 .text.TIM_SetCompare4
                0x00000000        0x6 obj/CUPDRONE/stm32f10x_tim.o
 .text.TIM_PWMIConfig
                0x00000000       0x60 obj/CUPDRONE/stm32f10x_tim.o
 .text.TIM_SetClockDivision
                0x00000000       0x16 obj/CUPDRONE/stm32f10x_tim.o
 .text.TIM_GetCounter
                0x00000000        0x6 obj/CUPDRONE/stm32f10x_tim.o
 .text.TIM_GetPrescaler
                0x00000000        0x6 obj/CUPDRONE/stm32f10x_tim.o
 .text.TIM_GetFlagStatus
                0x00000000        0xc obj/CUPDRONE/stm32f10x_tim.o
 .text.TIM_ClearFlag
                0x00000000        0x8 obj/CUPDRONE/stm32f10x_tim.o
 .text          0x00000000        0x0 obj/CUPDRONE/stm32f10x_usart.o
 .data          0x00000000        0x0 obj/CUPDRONE/stm32f10x_usart.o
 .bss           0x00000000        0x0 obj/CUPDRONE/stm32f10x_usart.o
 .text.USART_DeInit
                0x00000000       0x9c obj/CUPDRONE/stm32f10x_usart.o
 .text.USART_StructInit
                0x00000000       0x16 obj/CUPDRONE/stm32f10x_usart.o
 .text.USART_ClockInit
                0x00000000       0x20 obj/CUPDRONE/stm32f10x_usart.o
 .text.USART_ClockStructInit
                0x00000000        0xc obj/CUPDRONE/stm32f10x_usart.o
 .text.USART_SetAddress
                0x00000000       0x16 obj/CUPDRONE/stm32f10x_usart.o
 .text.USART_WakeUpConfig
                0x00000000       0x16 obj/CUPDRONE/stm32f10x_usart.o
 .text.USART_ReceiverWakeUpCmd
                0x00000000       0x18 obj/CUPDRONE/stm32f10x_usart.o
 .text.USART_LINBreakDetectLengthConfig
                0x00000000       0x16 obj/CUPDRONE/stm32f10x_usart.o
 .text.USART_LINCmd
                0x00000000       0x18 obj/CUPDRONE/stm32f10x_usart.o
 .text.USART_SendData
                0x00000000        0x8 obj/CUPDRONE/stm32f10x_usart.o
 .text.USART_ReceiveData
                0x00000000        0x8 obj/CUPDRONE/stm32f10x_usart.o
 .text.USART_SendBreak
                0x00000000        0xc obj/CUPDRONE/stm32f10x_usart.o
 .text.USART_SetGuardTime
                0x00000000       0x12 obj/CUPDRONE/stm32f10x_usart.o
 .text.USART_SetPrescaler
                0x00000000       0x12 obj/CUPDRONE/stm32f10x_usart.o
 .text.USART_SmartCardCmd
                0x00000000       0x18 obj/CUPDRONE/stm32f10x_usart.o
 .text.USART_SmartCardNACKCmd
                0x00000000       0x18 obj/CUPDRONE/stm32f10x_usart.o
 .text.USART_HalfDuplexCmd
                0x00000000       0x18 obj/CUPDRONE/stm32f10x_usart.o
 .text.USART_OverSampling8Cmd
                0x00000000       0x18 obj/CUPDRONE/stm32f10x_usart.o
 .text.USART_OneBitMethodCmd
                0x00000000       0x18 obj/CUPDRONE/stm32f10x_usart.o
 .text.USART_IrDAConfig
                0x00000000       0x16 obj/CUPDRONE/stm32f10x_usart.o
 .text.USART_IrDACmd
                0x00000000       0x18 obj/CUPDRONE/stm32f10x_usart.o
 .text.USART_GetFlagStatus
                0x00000000        0xc obj/CUPDRONE/stm32f10x_usart.o
 .text.USART_ClearFlag
                0x00000000        0x8 obj/CUPDRONE/stm32f10x_usart.o
 .text.USART_GetITStatus
                0x00000000       0x40 obj/CUPDRONE/stm32f10x_usart.o
 .text.USART_ClearITPendingBit
                0x00000000       0x10 obj/CUPDRONE/stm32f10x_usart.o
 .text          0x00000000        0x0 obj/CUPDRONE/stm32f10x_wwdg.o
 .data          0x00000000        0x0 obj/CUPDRONE/stm32f10x_wwdg.o
 .bss           0x00000000        0x0 obj/CUPDRONE/stm32f10x_wwdg.o
 .text.WWDG_DeInit
                0x00000000       0x1a obj/CUPDRONE/stm32f10x_wwdg.o
 .text.WWDG_SetPrescaler
                0x00000000       0x14 obj/CUPDRONE/stm32f10x_wwdg.o
 .text.WWDG_SetWindowValue
                0x00000000       0x28 obj/CUPDRONE/stm32f10x_wwdg.o
 .text.WWDG_EnableIT
                0x00000000        0xc obj/CUPDRONE/stm32f10x_wwdg.o
 .text.WWDG_SetCounter
                0x00000000       0x10 obj/CUPDRONE/stm32f10x_wwdg.o
 .text.WWDG_Enable
                0x00000000       0x10 obj/CUPDRONE/stm32f10x_wwdg.o
 .text.WWDG_GetFlagStatus
                0x00000000        0xc obj/CUPDRONE/stm32f10x_wwdg.o
 .text.WWDG_ClearFlag
                0x00000000        0xc obj/CUPDRONE/stm32f10x_wwdg.o
 .comment       0x00000000       0x6f obj/CUPDRONE/stm32f10x_wwdg.o
 .ARM.attributes
                0x00000000       0x33 obj/CUPDRONE/stm32f10x_wwdg.o
 .text          0x00000000        0x0 obj/CUPDRONE/croutine.o
 .data          0x00000000        0x0 obj/CUPDRONE/croutine.o
 .bss           0x00000000        0x0 obj/CUPDRONE/croutine.o
 .text.xCoRoutineCreate
                0x00000000       0xc4 obj/CUPDRONE/croutine.o
 .text.vCoRoutineAddToDelayedList
                0x00000000       0x4c obj/CUPDRONE/croutine.o
 .text.vCoRoutineSchedule
                0x00000000      0x158 obj/CUPDRONE/croutine.o
 .text.xCoRoutineRemoveFromEventList
                0x00000000       0x34 obj/CUPDRONE/croutine.o
 .bss.xDelayedCoRoutineList1
                0x00000000       0x14 obj/CUPDRONE/croutine.o
 .bss.xPassedTicks
                0x00000000        0x4 obj/CUPDRONE/croutine.o
 .bss.xPendingReadyCoRoutineList
                0x00000000       0x14 obj/CUPDRONE/croutine.o
 .bss.pxCurrentCoRoutine
                0x00000000        0x4 obj/CUPDRONE/croutine.o
 .bss.xDelayedCoRoutineList2
                0x00000000       0x14 obj/CUPDRONE/croutine.o
 .bss.xCoRoutineTickCount
                0x00000000        0x4 obj/CUPDRONE/croutine.o
 .bss.xLastTickCount
                0x00000000        0x4 obj/CUPDRONE/croutine.o
 .bss.pxDelayedCoRoutineList
                0x00000000        0x4 obj/CUPDRONE/croutine.o
 .bss.pxReadyCoRoutineLists
                0x00000000       0x28 obj/CUPDRONE/croutine.o
 .bss.uxTopCoRoutineReadyPriority
                0x00000000        0x4 obj/CUPDRONE/croutine.o
 .bss.pxOverflowDelayedCoRoutineList
                0x00000000        0x4 obj/CUPDRONE/croutine.o
 .comment       0x00000000       0x6f obj/CUPDRONE/croutine.o
 .ARM.attributes
                0x00000000       0x33 obj/CUPDRONE/croutine.o
 .text          0x00000000        0x0 obj/CUPDRONE/list.o
 .data          0x00000000        0x0 obj/CUPDRONE/list.o
 .bss           0x00000000        0x0 obj/CUPDRONE/list.o
 .text          0x00000000        0x0 obj/CUPDRONE/queue.o
 .data          0x00000000        0x0 obj/CUPDRONE/queue.o
 .bss           0x00000000        0x0 obj/CUPDRONE/queue.o
 .text.xQueueCreateCountingSemaphore
                0x00000000       0x2a obj/CUPDRONE/queue.o
 .text.xQueueGiveMutexRecursive
                0x00000000       0x32 obj/CUPDRONE/queue.o
 .text.xQueueTakeMutexRecursive
                0x00000000       0x3a obj/CUPDRONE/queue.o
 .text.xQueueReceiveFromISR
                0x00000000       0x6a obj/CUPDRONE/queue.o
 .text.xQueuePeekFromISR
                0x00000000       0x44 obj/CUPDRONE/queue.o
 .text.uxQueueMessagesWaiting
                0x00000000       0x1a obj/CUPDRONE/queue.o
 .text.uxQueueSpacesAvailable
                0x00000000       0x1e obj/CUPDRONE/queue.o
 .text.uxQueueMessagesWaitingFromISR
                0x00000000        0xe obj/CUPDRONE/queue.o
 .text.ucQueueGetQueueNumber
                0x00000000        0x6 obj/CUPDRONE/queue.o
 .text.vQueueSetQueueNumber
                0x00000000        0x6 obj/CUPDRONE/queue.o
 .text.ucQueueGetQueueType
                0x00000000        0x6 obj/CUPDRONE/queue.o
 .text.xQueueIsQueueEmptyFromISR
                0x00000000       0x14 obj/CUPDRONE/queue.o
 .text.xQueueIsQueueFullFromISR
                0x00000000       0x16 obj/CUPDRONE/queue.o
 .text.vQueueAddToRegistry
                0x00000000       0x28 obj/CUPDRONE/queue.o
 .text.vQueueUnregisterQueue
                0x00000000       0x24 obj/CUPDRONE/queue.o
 .text.vQueueDelete
                0x00000000       0x20 obj/CUPDRONE/queue.o
 COMMON         0x00000000       0x40 obj/CUPDRONE/queue.o
 .text          0x00000000        0x0 obj/CUPDRONE/tasks.o
 .data          0x00000000        0x0 obj/CUPDRONE/tasks.o
 .bss           0x00000000        0x0 obj/CUPDRONE/tasks.o
 .text.prvListTaskWithinSingleList
                0x00000000       0x8e obj/CUPDRONE/tasks.o
 .text.vTaskDelete
                0x00000000       0x6c obj/CUPDRONE/tasks.o
 .text.uxTaskPriorityGet
                0x00000000       0x1c obj/CUPDRONE/tasks.o
 .text.vTaskPrioritySet
                0x00000000       0xa0 obj/CUPDRONE/tasks.o
 .text.xTaskIsTaskSuspended
                0x00000000       0x30 obj/CUPDRONE/tasks.o
 .text.vTaskResume
                0x00000000       0x6c obj/CUPDRONE/tasks.o
 .text.xTaskResumeFromISR
                0x00000000       0x84 obj/CUPDRONE/tasks.o
 .text.vTaskEndScheduler
                0x00000000       0x18 obj/CUPDRONE/tasks.o
 .text.xTaskGetTickCountFromISR
                0x00000000       0x1c obj/CUPDRONE/tasks.o
 .text.uxTaskGetNumberOfTasks
                0x00000000        0xc obj/CUPDRONE/tasks.o
 .text.vTaskDelayUntil
                0x00000000       0x68 obj/CUPDRONE/tasks.o
 .text.uxTaskGetSystemState
                0x00000000       0xa0 obj/CUPDRONE/tasks.o
 .text.vTaskSuspend
                0x00000000       0x70 obj/CUPDRONE/tasks.o
 .text.uxTaskGetTaskNumber
                0x00000000        0x6 obj/CUPDRONE/tasks.o
 .text.vTaskSetTaskNumber
                0x00000000        0x6 obj/CUPDRONE/tasks.o
 .text          0x00000000        0x0 obj/CUPDRONE/timers.o
 .data          0x00000000        0x0 obj/CUPDRONE/timers.o
 .bss           0x00000000        0x0 obj/CUPDRONE/timers.o
 .text.xTimerCreate
                0x00000000       0x3e obj/CUPDRONE/timers.o
 .text.xTimerIsTimerActive
                0x00000000       0x18 obj/CUPDRONE/timers.o
 .text.pvTimerGetTimerID
                0x00000000        0x4 obj/CUPDRONE/timers.o
 .text          0x00000000        0x0 obj/CUPDRONE/cmsis_os.o
 .data          0x00000000        0x0 obj/CUPDRONE/cmsis_os.o
 .bss           0x00000000        0x0 obj/CUPDRONE/cmsis_os.o
 .text.osKernelSysTick
                0x00000000        0xe obj/CUPDRONE/cmsis_os.o
 .text.osKernelRunning
                0x00000000        0xe obj/CUPDRONE/cmsis_os.o
 .text.osThreadGetId
                0x00000000        0x4 obj/CUPDRONE/cmsis_os.o
 .text.osThreadTerminate
                0x00000000        0xa obj/CUPDRONE/cmsis_os.o
 .text.osThreadYield
                0x00000000        0xa obj/CUPDRONE/cmsis_os.o
 .text.osThreadSetPriority
                0x00000000       0x12 obj/CUPDRONE/cmsis_os.o
 .text.osThreadGetPriority
                0x00000000        0x4 obj/CUPDRONE/cmsis_os.o
 .text.osTimerCreate
                0x00000000       0x20 obj/CUPDRONE/cmsis_os.o
 .text.osTimerStart
                0x00000000       0xb4 obj/CUPDRONE/cmsis_os.o
 .text.osTimerStop
                0x00000000       0x44 obj/CUPDRONE/cmsis_os.o
 .text.osMutexDelete
                0x00000000        0xa obj/CUPDRONE/cmsis_os.o
 .text.osSemaphoreCreate
                0x00000000       0x2c obj/CUPDRONE/cmsis_os.o
 .text.osSemaphoreWait
                0x00000000       0x24 obj/CUPDRONE/cmsis_os.o
 .text.osSemaphoreRelease
                0x00000000       0x48 obj/CUPDRONE/cmsis_os.o
 .text.osSemaphoreDelete
                0x00000000        0xa obj/CUPDRONE/cmsis_os.o
 .text.osPoolCreate
                0x00000000       0x6a obj/CUPDRONE/cmsis_os.o
 .text.osPoolAlloc
                0x00000000       0x5a obj/CUPDRONE/cmsis_os.o
 .text.osPoolCAlloc
                0x00000000        0xe obj/CUPDRONE/cmsis_os.o
 .text.osPoolFree
                0x00000000       0x2a obj/CUPDRONE/cmsis_os.o
 .text.osMessageCreate
                0x00000000        0xa obj/CUPDRONE/cmsis_os.o
 .text.osMessagePut
                0x00000000       0x4c obj/CUPDRONE/cmsis_os.o
 .text.osMessageGet
                0x00000000       0x6c obj/CUPDRONE/cmsis_os.o
 .text.osMailCreate
                0x00000000       0x56 obj/CUPDRONE/cmsis_os.o
 .text.osMailAlloc
                0x00000000        0xa obj/CUPDRONE/cmsis_os.o
 .text.osMailCAlloc
                0x00000000       0x14 obj/CUPDRONE/cmsis_os.o
 .text.osMailPut
                0x00000000       0x50 obj/CUPDRONE/cmsis_os.o
 .text.osMailGet
                0x00000000       0x70 obj/CUPDRONE/cmsis_os.o
 .text.osMailFree
                0x00000000       0x12 obj/CUPDRONE/cmsis_os.o
 .text.osThreadSuspend
                0x00000000        0xa obj/CUPDRONE/cmsis_os.o
 .text.osThreadResume
                0x00000000       0x16 obj/CUPDRONE/cmsis_os.o
 .text.osThreadSuspendAll
                0x00000000        0xa obj/CUPDRONE/cmsis_os.o
 .text.osThreadResumeAll
                0x00000000        0xa obj/CUPDRONE/cmsis_os.o
 .text.osThreadIsSuspended
                0x00000000       0x10 obj/CUPDRONE/cmsis_os.o
 .text.osDelayUntil
                0x00000000       0x1c obj/CUPDRONE/cmsis_os.o
 .text.osThreadList
                0x00000000        0x4 obj/CUPDRONE/cmsis_os.o
 .text.osMessagePeek
                0x00000000       0x3a obj/CUPDRONE/cmsis_os.o
 .text.osRecursiveMutexCreate
                0x00000000        0x6 obj/CUPDRONE/cmsis_os.o
 .text.osRecursiveMutexRelease
                0x00000000       0x10 obj/CUPDRONE/cmsis_os.o
 .text.osRecursiveMutexWait
                0x00000000       0x16 obj/CUPDRONE/cmsis_os.o
 .rodata.str1.1
                0x00000000        0x1 obj/CUPDRONE/cmsis_os.o
 .text          0x00000000        0x0 obj/CUPDRONE/heap_2.o
 .data          0x00000000        0x0 obj/CUPDRONE/heap_2.o
 .bss           0x00000000        0x0 obj/CUPDRONE/heap_2.o
 .text.xPortGetFreeHeapSize
                0x00000000        0xc obj/CUPDRONE/heap_2.o
 .text.vPortInitialiseBlocks
                0x00000000        0x2 obj/CUPDRONE/heap_2.o
 .text          0x00000000        0x0 obj/CUPDRONE/port.o
 .data          0x00000000        0x0 obj/CUPDRONE/port.o
 .bss           0x00000000        0x0 obj/CUPDRONE/port.o
 .text.vPortEndScheduler
                0x00000000        0x2 obj/CUPDRONE/port.o
 .text          0x00000000        0x0 obj/CUPDRONE/usb_core.o
 .data          0x00000000        0x0 obj/CUPDRONE/usb_core.o
 .bss           0x00000000        0x0 obj/CUPDRONE/usb_core.o
 .text          0x00000000        0x0 obj/CUPDRONE/usb_init.o
 .data          0x00000000        0x0 obj/CUPDRONE/usb_init.o
 .bss           0x00000000        0x0 obj/CUPDRONE/usb_init.o
 .text          0x00000000        0x0 obj/CUPDRONE/usb_int.o
 .data          0x00000000        0x0 obj/CUPDRONE/usb_int.o
 .bss           0x00000000        0x0 obj/CUPDRONE/usb_int.o
 .text.CTR_HP   0x00000000       0x70 obj/CUPDRONE/usb_int.o
 .text          0x00000000        0x0 obj/CUPDRONE/usb_mem.o
 .data          0x00000000        0x0 obj/CUPDRONE/usb_mem.o
 .bss           0x00000000        0x0 obj/CUPDRONE/usb_mem.o
 .text          0x00000000        0x0 obj/CUPDRONE/usb_regs.o
 .data          0x00000000        0x0 obj/CUPDRONE/usb_regs.o
 .bss           0x00000000        0x0 obj/CUPDRONE/usb_regs.o
 .text.SetCNTR  0x00000000        0xc obj/CUPDRONE/usb_regs.o
 .text.GetCNTR  0x00000000        0xc obj/CUPDRONE/usb_regs.o
 .text.SetISTR  0x00000000        0xc obj/CUPDRONE/usb_regs.o
 .text.GetISTR  0x00000000        0xc obj/CUPDRONE/usb_regs.o
 .text.GetFNR   0x00000000        0xc obj/CUPDRONE/usb_regs.o
 .text.SetDADDR
                0x00000000        0xc obj/CUPDRONE/usb_regs.o
 .text.GetDADDR
                0x00000000        0xc obj/CUPDRONE/usb_regs.o
 .text.GetBTABLE
                0x00000000        0xc obj/CUPDRONE/usb_regs.o
 .text.SetENDPOINT
                0x00000000        0xe obj/CUPDRONE/usb_regs.o
 .text.GetENDPOINT
                0x00000000       0x10 obj/CUPDRONE/usb_regs.o
 .text.GetEPType
                0x00000000       0x12 obj/CUPDRONE/usb_regs.o
 .text.SetDouBleBuffEPStall
                0x00000000       0x24 obj/CUPDRONE/usb_regs.o
 .text.GetEPTxStatus
                0x00000000       0x12 obj/CUPDRONE/usb_regs.o
 .text.GetEPRxStatus
                0x00000000       0x12 obj/CUPDRONE/usb_regs.o
 .text.SetEPDoubleBuff
                0x00000000       0x20 obj/CUPDRONE/usb_regs.o
 .text.Set_Status_Out
                0x00000000        0x4 obj/CUPDRONE/usb_regs.o
 .text.SetEP_KIND
                0x00000000        0x4 obj/CUPDRONE/usb_regs.o
 .text.ClearEP_KIND
                0x00000000        0x4 obj/CUPDRONE/usb_regs.o
 .text.GetTxStallStatus
                0x00000000       0x1a obj/CUPDRONE/usb_regs.o
 .text.GetRxStallStatus
                0x00000000       0x1a obj/CUPDRONE/usb_regs.o
 .text.ClearEP_CTR_RX
                0x00000000       0x18 obj/CUPDRONE/usb_regs.o
 .text.ClearEP_CTR_TX
                0x00000000       0x1c obj/CUPDRONE/usb_regs.o
 .text.ToggleDTOG_RX
                0x00000000       0x20 obj/CUPDRONE/usb_regs.o
 .text.ToggleDTOG_TX
                0x00000000       0x20 obj/CUPDRONE/usb_regs.o
 .text.SetEPAddress
                0x00000000       0x22 obj/CUPDRONE/usb_regs.o
 .text.GetEPAddress
                0x00000000       0x12 obj/CUPDRONE/usb_regs.o
 .text.SetEPCountRxReg
                0x00000000       0x26 obj/CUPDRONE/usb_regs.o
 .text.SetEPDblBuffAddr
                0x00000000       0x38 obj/CUPDRONE/usb_regs.o
 .text.SetEPDblBuffCount
                0x00000000       0xa8 obj/CUPDRONE/usb_regs.o
 .text.SetEPDblBuf0Count
                0x00000000       0x5c obj/CUPDRONE/usb_regs.o
 .text.SetEPDblBuf1Count
                0x00000000       0x5c obj/CUPDRONE/usb_regs.o
 .text.GetEPDblBuf0Count
                0x00000000       0x20 obj/CUPDRONE/usb_regs.o
 .text.GetEPTxCount
                0x00000000        0x4 obj/CUPDRONE/usb_regs.o
 .text.GetEPDblBufDir
                0x00000000       0x44 obj/CUPDRONE/usb_regs.o
 .text.FreeUserBuffer
                0x00000000       0x42 obj/CUPDRONE/usb_regs.o
 .text.ToWord   0x00000000        0x6 obj/CUPDRONE/usb_regs.o
 .text          0x00000000        0x0 obj/CUPDRONE/usb_sil.o
 .data          0x00000000        0x0 obj/CUPDRONE/usb_sil.o
 .bss           0x00000000        0x0 obj/CUPDRONE/usb_sil.o
 .text.USB_SIL_Write
                0x00000000       0x28 obj/CUPDRONE/usb_sil.o
 .text          0x00000000        0x0 obj/CUPDRONE/hw_config.o
 .data          0x00000000        0x0 obj/CUPDRONE/hw_config.o
 .bss           0x00000000        0x0 obj/CUPDRONE/hw_config.o
 .text.Enter_LowPowerMode
                0x00000000        0xc obj/CUPDRONE/hw_config.o
 .text.Leave_LowPowerMode
                0x00000000       0x1c obj/CUPDRONE/hw_config.o
 .text.USART_Config_Default
                0x00000000        0x2 obj/CUPDRONE/hw_config.o
 .text.USART_Config
                0x00000000        0x4 obj/CUPDRONE/hw_config.o
 .text.USART_To_USB_Send_Data
                0x00000000        0x2 obj/CUPDRONE/hw_config.o
 .text          0x00000000        0x0 obj/CUPDRONE/usb_desc.o
 .data          0x00000000        0x0 obj/CUPDRONE/usb_desc.o
 .bss           0x00000000        0x0 obj/CUPDRONE/usb_desc.o
 .text          0x00000000        0x0 obj/CUPDRONE/usb_endp.o
 .data          0x00000000        0x0 obj/CUPDRONE/usb_endp.o
 .bss           0x00000000        0x0 obj/CUPDRONE/usb_endp.o
 .text          0x00000000        0x0 obj/CUPDRONE/usb_istr.o
 .data          0x00000000        0x0 obj/CUPDRONE/usb_istr.o
 .bss           0x00000000        0x0 obj/CUPDRONE/usb_istr.o
 .bss.wCNTR     0x00000000        0x4 obj/CUPDRONE/usb_istr.o
 .bss.esof_counter
                0x00000000        0x4 obj/CUPDRONE/usb_istr.o
 .text          0x00000000        0x0 obj/CUPDRONE/usb_prop.o
 .data          0x00000000        0x0 obj/CUPDRONE/usb_prop.o
 .bss           0x00000000        0x0 obj/CUPDRONE/usb_prop.o
 .text          0x00000000        0x0 obj/CUPDRONE/usb_pwr.o
 .data          0x00000000        0x0 obj/CUPDRONE/usb_pwr.o
 .bss           0x00000000        0x0 obj/CUPDRONE/usb_pwr.o
 .text.PowerOff
                0x00000000       0x24 obj/CUPDRONE/usb_pwr.o
 .text.Suspend  0x00000000       0xdc obj/CUPDRONE/usb_pwr.o
 .text.Resume_Init
                0x00000000       0x20 obj/CUPDRONE/usb_pwr.o
 .text.Resume   0x00000000       0xa8 obj/CUPDRONE/usb_pwr.o
 .bss.fSuspendEnabled
                0x00000000        0x1 obj/CUPDRONE/usb_pwr.o
 .bss.remotewakeupon
                0x00000000        0x4 obj/CUPDRONE/usb_pwr.o
 COMMON         0x00000000       0x24 obj/CUPDRONE/usb_pwr.o
 .text          0x00000000        0x0 obj/CUPDRONE/thread_main.o
 .data          0x00000000        0x0 obj/CUPDRONE/thread_main.o
 .bss           0x00000000        0x0 obj/CUPDRONE/thread_main.o
 .text          0x00000000        0x0 obj/CUPDRONE/thread_menu.o
 .data          0x00000000        0x0 obj/CUPDRONE/thread_menu.o
 .bss           0x00000000        0x0 obj/CUPDRONE/thread_menu.o
 .text          0x00000000        0x0 obj/CUPDRONE/thread_mw.o
 .data          0x00000000        0x0 obj/CUPDRONE/thread_mw.o
 .bss           0x00000000        0x0 obj/CUPDRONE/thread_mw.o
 .text          0x00000000        0x0 obj/CUPDRONE/thread_nrf.o
 .data          0x00000000        0x0 obj/CUPDRONE/thread_nrf.o
 .bss           0x00000000        0x0 obj/CUPDRONE/thread_nrf.o
 .text          0x00000000        0x0 c:/program files (x86)/gnu tools arm embedded/5.2 2015q4/bin/../lib/gcc/arm-none-eabi/5.2.1/../../../../arm-none-eabi/lib/armv7-m\libm.a(lib_a-sf_cos.o)
 .data          0x00000000        0x0 c:/program files (x86)/gnu tools arm embedded/5.2 2015q4/bin/../lib/gcc/arm-none-eabi/5.2.1/../../../../arm-none-eabi/lib/armv7-m\libm.a(lib_a-sf_cos.o)
 .bss           0x00000000        0x0 c:/program files (x86)/gnu tools arm embedded/5.2 2015q4/bin/../lib/gcc/arm-none-eabi/5.2.1/../../../../arm-none-eabi/lib/armv7-m\libm.a(lib_a-sf_cos.o)
 .text          0x00000000        0x0 c:/program files (x86)/gnu tools arm embedded/5.2 2015q4/bin/../lib/gcc/arm-none-eabi/5.2.1/../../../../arm-none-eabi/lib/armv7-m\libm.a(lib_a-sf_lrint.o)
 .data          0x00000000        0x0 c:/program files (x86)/gnu tools arm embedded/5.2 2015q4/bin/../lib/gcc/arm-none-eabi/5.2.1/../../../../arm-none-eabi/lib/armv7-m\libm.a(lib_a-sf_lrint.o)
 .bss           0x00000000        0x0 c:/program files (x86)/gnu tools arm embedded/5.2 2015q4/bin/../lib/gcc/arm-none-eabi/5.2.1/../../../../arm-none-eabi/lib/armv7-m\libm.a(lib_a-sf_lrint.o)
 .text          0x00000000        0x0 c:/program files (x86)/gnu tools arm embedded/5.2 2015q4/bin/../lib/gcc/arm-none-eabi/5.2.1/../../../../arm-none-eabi/lib/armv7-m\libm.a(lib_a-sf_sin.o)
 .data          0x00000000        0x0 c:/program files (x86)/gnu tools arm embedded/5.2 2015q4/bin/../lib/gcc/arm-none-eabi/5.2.1/../../../../arm-none-eabi/lib/armv7-m\libm.a(lib_a-sf_sin.o)
 .bss           0x00000000        0x0 c:/program files (x86)/gnu tools arm embedded/5.2 2015q4/bin/../lib/gcc/arm-none-eabi/5.2.1/../../../../arm-none-eabi/lib/armv7-m\libm.a(lib_a-sf_sin.o)
 .text          0x00000000        0x0 c:/program files (x86)/gnu tools arm embedded/5.2 2015q4/bin/../lib/gcc/arm-none-eabi/5.2.1/../../../../arm-none-eabi/lib/armv7-m\libm.a(lib_a-wf_atan2.o)
 .data          0x00000000        0x0 c:/program files (x86)/gnu tools arm embedded/5.2 2015q4/bin/../lib/gcc/arm-none-eabi/5.2.1/../../../../arm-none-eabi/lib/armv7-m\libm.a(lib_a-wf_atan2.o)
 .bss           0x00000000        0x0 c:/program files (x86)/gnu tools arm embedded/5.2 2015q4/bin/../lib/gcc/arm-none-eabi/5.2.1/../../../../arm-none-eabi/lib/armv7-m\libm.a(lib_a-wf_atan2.o)
 .text          0x00000000        0x0 c:/program files (x86)/gnu tools arm embedded/5.2 2015q4/bin/../lib/gcc/arm-none-eabi/5.2.1/../../../../arm-none-eabi/lib/armv7-m\libm.a(lib_a-wf_pow.o)
 .data          0x00000000        0x0 c:/program files (x86)/gnu tools arm embedded/5.2 2015q4/bin/../lib/gcc/arm-none-eabi/5.2.1/../../../../arm-none-eabi/lib/armv7-m\libm.a(lib_a-wf_pow.o)
 .bss           0x00000000        0x0 c:/program files (x86)/gnu tools arm embedded/5.2 2015q4/bin/../lib/gcc/arm-none-eabi/5.2.1/../../../../arm-none-eabi/lib/armv7-m\libm.a(lib_a-wf_pow.o)
 .text          0x00000000        0x0 c:/program files (x86)/gnu tools arm embedded/5.2 2015q4/bin/../lib/gcc/arm-none-eabi/5.2.1/../../../../arm-none-eabi/lib/armv7-m\libm.a(lib_a-wf_sqrt.o)
 .data          0x00000000        0x0 c:/program files (x86)/gnu tools arm embedded/5.2 2015q4/bin/../lib/gcc/arm-none-eabi/5.2.1/../../../../arm-none-eabi/lib/armv7-m\libm.a(lib_a-wf_sqrt.o)
 .bss           0x00000000        0x0 c:/program files (x86)/gnu tools arm embedded/5.2 2015q4/bin/../lib/gcc/arm-none-eabi/5.2.1/../../../../arm-none-eabi/lib/armv7-m\libm.a(lib_a-wf_sqrt.o)
 .text          0x00000000        0x0 c:/program files (x86)/gnu tools arm embedded/5.2 2015q4/bin/../lib/gcc/arm-none-eabi/5.2.1/../../../../arm-none-eabi/lib/armv7-m\libm.a(lib_a-ef_atan2.o)
 .data          0x00000000        0x0 c:/program files (x86)/gnu tools arm embedded/5.2 2015q4/bin/../lib/gcc/arm-none-eabi/5.2.1/../../../../arm-none-eabi/lib/armv7-m\libm.a(lib_a-ef_atan2.o)
 .bss           0x00000000        0x0 c:/program files (x86)/gnu tools arm embedded/5.2 2015q4/bin/../lib/gcc/arm-none-eabi/5.2.1/../../../../arm-none-eabi/lib/armv7-m\libm.a(lib_a-ef_atan2.o)
 .text          0x00000000        0x0 c:/program files (x86)/gnu tools arm embedded/5.2 2015q4/bin/../lib/gcc/arm-none-eabi/5.2.1/../../../../arm-none-eabi/lib/armv7-m\libm.a(lib_a-ef_pow.o)
 .data          0x00000000        0x0 c:/program files (x86)/gnu tools arm embedded/5.2 2015q4/bin/../lib/gcc/arm-none-eabi/5.2.1/../../../../arm-none-eabi/lib/armv7-m\libm.a(lib_a-ef_pow.o)
 .bss           0x00000000        0x0 c:/program files (x86)/gnu tools arm embedded/5.2 2015q4/bin/../lib/gcc/arm-none-eabi/5.2.1/../../../../arm-none-eabi/lib/armv7-m\libm.a(lib_a-ef_pow.o)
 .text          0x00000000        0x0 c:/program files (x86)/gnu tools arm embedded/5.2 2015q4/bin/../lib/gcc/arm-none-eabi/5.2.1/../../../../arm-none-eabi/lib/armv7-m\libm.a(lib_a-ef_rem_pio2.o)
 .data          0x00000000        0x0 c:/program files (x86)/gnu tools arm embedded/5.2 2015q4/bin/../lib/gcc/arm-none-eabi/5.2.1/../../../../arm-none-eabi/lib/armv7-m\libm.a(lib_a-ef_rem_pio2.o)
 .bss           0x00000000        0x0 c:/program files (x86)/gnu tools arm embedded/5.2 2015q4/bin/../lib/gcc/arm-none-eabi/5.2.1/../../../../arm-none-eabi/lib/armv7-m\libm.a(lib_a-ef_rem_pio2.o)
 .text          0x00000000        0x0 c:/program files (x86)/gnu tools arm embedded/5.2 2015q4/bin/../lib/gcc/arm-none-eabi/5.2.1/../../../../arm-none-eabi/lib/armv7-m\libm.a(lib_a-ef_sqrt.o)
 .data          0x00000000        0x0 c:/program files (x86)/gnu tools arm embedded/5.2 2015q4/bin/../lib/gcc/arm-none-eabi/5.2.1/../../../../arm-none-eabi/lib/armv7-m\libm.a(lib_a-ef_sqrt.o)
 .bss           0x00000000        0x0 c:/program files (x86)/gnu tools arm embedded/5.2 2015q4/bin/../lib/gcc/arm-none-eabi/5.2.1/../../../../arm-none-eabi/lib/armv7-m\libm.a(lib_a-ef_sqrt.o)
 .text          0x00000000        0x0 c:/program files (x86)/gnu tools arm embedded/5.2 2015q4/bin/../lib/gcc/arm-none-eabi/5.2.1/../../../../arm-none-eabi/lib/armv7-m\libm.a(lib_a-kf_cos.o)
 .data          0x00000000        0x0 c:/program files (x86)/gnu tools arm embedded/5.2 2015q4/bin/../lib/gcc/arm-none-eabi/5.2.1/../../../../arm-none-eabi/lib/armv7-m\libm.a(lib_a-kf_cos.o)
 .bss           0x00000000        0x0 c:/program files (x86)/gnu tools arm embedded/5.2 2015q4/bin/../lib/gcc/arm-none-eabi/5.2.1/../../../../arm-none-eabi/lib/armv7-m\libm.a(lib_a-kf_cos.o)
 .text          0x00000000        0x0 c:/program files (x86)/gnu tools arm embedded/5.2 2015q4/bin/../lib/gcc/arm-none-eabi/5.2.1/../../../../arm-none-eabi/lib/armv7-m\libm.a(lib_a-kf_rem_pio2.o)
 .data          0x00000000        0x0 c:/program files (x86)/gnu tools arm embedded/5.2 2015q4/bin/../lib/gcc/arm-none-eabi/5.2.1/../../../../arm-none-eabi/lib/armv7-m\libm.a(lib_a-kf_rem_pio2.o)
 .bss           0x00000000        0x0 c:/program files (x86)/gnu tools arm embedded/5.2 2015q4/bin/../lib/gcc/arm-none-eabi/5.2.1/../../../../arm-none-eabi/lib/armv7-m\libm.a(lib_a-kf_rem_pio2.o)
 .text          0x00000000        0x0 c:/program files (x86)/gnu tools arm embedded/5.2 2015q4/bin/../lib/gcc/arm-none-eabi/5.2.1/../../../../arm-none-eabi/lib/armv7-m\libm.a(lib_a-kf_sin.o)
 .data          0x00000000        0x0 c:/program files (x86)/gnu tools arm embedded/5.2 2015q4/bin/../lib/gcc/arm-none-eabi/5.2.1/../../../../arm-none-eabi/lib/armv7-m\libm.a(lib_a-kf_sin.o)
 .bss           0x00000000        0x0 c:/program files (x86)/gnu tools arm embedded/5.2 2015q4/bin/../lib/gcc/arm-none-eabi/5.2.1/../../../../arm-none-eabi/lib/armv7-m\libm.a(lib_a-kf_sin.o)
 .text          0x00000000        0x0 c:/program files (x86)/gnu tools arm embedded/5.2 2015q4/bin/../lib/gcc/arm-none-eabi/5.2.1/../../../../arm-none-eabi/lib/armv7-m\libm.a(lib_a-s_lib_ver.o)
 .data          0x00000000        0x0 c:/program files (x86)/gnu tools arm embedded/5.2 2015q4/bin/../lib/gcc/arm-none-eabi/5.2.1/../../../../arm-none-eabi/lib/armv7-m\libm.a(lib_a-s_lib_ver.o)
 .bss           0x00000000        0x0 c:/program files (x86)/gnu tools arm embedded/5.2 2015q4/bin/../lib/gcc/arm-none-eabi/5.2.1/../../../../arm-none-eabi/lib/armv7-m\libm.a(lib_a-s_lib_ver.o)
 .text          0x00000000        0x0 c:/program files (x86)/gnu tools arm embedded/5.2 2015q4/bin/../lib/gcc/arm-none-eabi/5.2.1/../../../../arm-none-eabi/lib/armv7-m\libm.a(lib_a-s_matherr.o)
 .data          0x00000000        0x0 c:/program files (x86)/gnu tools arm embedded/5.2 2015q4/bin/../lib/gcc/arm-none-eabi/5.2.1/../../../../arm-none-eabi/lib/armv7-m\libm.a(lib_a-s_matherr.o)
 .bss           0x00000000        0x0 c:/program files (x86)/gnu tools arm embedded/5.2 2015q4/bin/../lib/gcc/arm-none-eabi/5.2.1/../../../../arm-none-eabi/lib/armv7-m\libm.a(lib_a-s_matherr.o)
 .text          0x00000000        0x0 c:/program files (x86)/gnu tools arm embedded/5.2 2015q4/bin/../lib/gcc/arm-none-eabi/5.2.1/../../../../arm-none-eabi/lib/armv7-m\libm.a(lib_a-s_rint.o)
 .data          0x00000000        0x0 c:/program files (x86)/gnu tools arm embedded/5.2 2015q4/bin/../lib/gcc/arm-none-eabi/5.2.1/../../../../arm-none-eabi/lib/armv7-m\libm.a(lib_a-s_rint.o)
 .bss           0x00000000        0x0 c:/program files (x86)/gnu tools arm embedded/5.2 2015q4/bin/../lib/gcc/arm-none-eabi/5.2.1/../../../../arm-none-eabi/lib/armv7-m\libm.a(lib_a-s_rint.o)
 .text          0x00000000        0x0 c:/program files (x86)/gnu tools arm embedded/5.2 2015q4/bin/../lib/gcc/arm-none-eabi/5.2.1/../../../../arm-none-eabi/lib/armv7-m\libm.a(lib_a-sf_atan.o)
 .data          0x00000000        0x0 c:/program files (x86)/gnu tools arm embedded/5.2 2015q4/bin/../lib/gcc/arm-none-eabi/5.2.1/../../../../arm-none-eabi/lib/armv7-m\libm.a(lib_a-sf_atan.o)
 .bss           0x00000000        0x0 c:/program files (x86)/gnu tools arm embedded/5.2 2015q4/bin/../lib/gcc/arm-none-eabi/5.2.1/../../../../arm-none-eabi/lib/armv7-m\libm.a(lib_a-sf_atan.o)
 .text          0x00000000        0x0 c:/program files (x86)/gnu tools arm embedded/5.2 2015q4/bin/../lib/gcc/arm-none-eabi/5.2.1/../../../../arm-none-eabi/lib/armv7-m\libm.a(lib_a-sf_fabs.o)
 .data          0x00000000        0x0 c:/program files (x86)/gnu tools arm embedded/5.2 2015q4/bin/../lib/gcc/arm-none-eabi/5.2.1/../../../../arm-none-eabi/lib/armv7-m\libm.a(lib_a-sf_fabs.o)
 .bss           0x00000000        0x0 c:/program files (x86)/gnu tools arm embedded/5.2 2015q4/bin/../lib/gcc/arm-none-eabi/5.2.1/../../../../arm-none-eabi/lib/armv7-m\libm.a(lib_a-sf_fabs.o)
 .text          0x00000000        0x0 c:/program files (x86)/gnu tools arm embedded/5.2 2015q4/bin/../lib/gcc/arm-none-eabi/5.2.1/../../../../arm-none-eabi/lib/armv7-m\libm.a(lib_a-sf_finite.o)
 .data          0x00000000        0x0 c:/program files (x86)/gnu tools arm embedded/5.2 2015q4/bin/../lib/gcc/arm-none-eabi/5.2.1/../../../../arm-none-eabi/lib/armv7-m\libm.a(lib_a-sf_finite.o)
 .bss           0x00000000        0x0 c:/program files (x86)/gnu tools arm embedded/5.2 2015q4/bin/../lib/gcc/arm-none-eabi/5.2.1/../../../../arm-none-eabi/lib/armv7-m\libm.a(lib_a-sf_finite.o)
 .text          0x00000000        0x0 c:/program files (x86)/gnu tools arm embedded/5.2 2015q4/bin/../lib/gcc/arm-none-eabi/5.2.1/../../../../arm-none-eabi/lib/armv7-m\libm.a(lib_a-sf_floor.o)
 .data          0x00000000        0x0 c:/program files (x86)/gnu tools arm embedded/5.2 2015q4/bin/../lib/gcc/arm-none-eabi/5.2.1/../../../../arm-none-eabi/lib/armv7-m\libm.a(lib_a-sf_floor.o)
 .bss           0x00000000        0x0 c:/program files (x86)/gnu tools arm embedded/5.2 2015q4/bin/../lib/gcc/arm-none-eabi/5.2.1/../../../../arm-none-eabi/lib/armv7-m\libm.a(lib_a-sf_floor.o)
 .text          0x00000000        0x0 c:/program files (x86)/gnu tools arm embedded/5.2 2015q4/bin/../lib/gcc/arm-none-eabi/5.2.1/../../../../arm-none-eabi/lib/armv7-m\libm.a(lib_a-sf_fpclassify.o)
 .data          0x00000000        0x0 c:/program files (x86)/gnu tools arm embedded/5.2 2015q4/bin/../lib/gcc/arm-none-eabi/5.2.1/../../../../arm-none-eabi/lib/armv7-m\libm.a(lib_a-sf_fpclassify.o)
 .bss           0x00000000        0x0 c:/program files (x86)/gnu tools arm embedded/5.2 2015q4/bin/../lib/gcc/arm-none-eabi/5.2.1/../../../../arm-none-eabi/lib/armv7-m\libm.a(lib_a-sf_fpclassify.o)
 .text          0x00000000        0x0 c:/program files (x86)/gnu tools arm embedded/5.2 2015q4/bin/../lib/gcc/arm-none-eabi/5.2.1/../../../../arm-none-eabi/lib/armv7-m\libm.a(lib_a-sf_nan.o)
 .data          0x00000000        0x0 c:/program files (x86)/gnu tools arm embedded/5.2 2015q4/bin/../lib/gcc/arm-none-eabi/5.2.1/../../../../arm-none-eabi/lib/armv7-m\libm.a(lib_a-sf_nan.o)
 .bss           0x00000000        0x0 c:/program files (x86)/gnu tools arm embedded/5.2 2015q4/bin/../lib/gcc/arm-none-eabi/5.2.1/../../../../arm-none-eabi/lib/armv7-m\libm.a(lib_a-sf_nan.o)
 .text          0x00000000        0x0 c:/program files (x86)/gnu tools arm embedded/5.2 2015q4/bin/../lib/gcc/arm-none-eabi/5.2.1/../../../../arm-none-eabi/lib/armv7-m\libm.a(lib_a-sf_scalbn.o)
 .data          0x00000000        0x0 c:/program files (x86)/gnu tools arm embedded/5.2 2015q4/bin/../lib/gcc/arm-none-eabi/5.2.1/../../../../arm-none-eabi/lib/armv7-m\libm.a(lib_a-sf_scalbn.o)
 .bss           0x00000000        0x0 c:/program files (x86)/gnu tools arm embedded/5.2 2015q4/bin/../lib/gcc/arm-none-eabi/5.2.1/../../../../arm-none-eabi/lib/armv7-m\libm.a(lib_a-sf_scalbn.o)
 .text          0x00000000        0x0 c:/program files (x86)/gnu tools arm embedded/5.2 2015q4/bin/../lib/gcc/arm-none-eabi/5.2.1/../../../../arm-none-eabi/lib/armv7-m\libm.a(lib_a-sf_copysign.o)
 .data          0x00000000        0x0 c:/program files (x86)/gnu tools arm embedded/5.2 2015q4/bin/../lib/gcc/arm-none-eabi/5.2.1/../../../../arm-none-eabi/lib/armv7-m\libm.a(lib_a-sf_copysign.o)
 .bss           0x00000000        0x0 c:/program files (x86)/gnu tools arm embedded/5.2 2015q4/bin/../lib/gcc/arm-none-eabi/5.2.1/../../../../arm-none-eabi/lib/armv7-m\libm.a(lib_a-sf_copysign.o)
 .data          0x00000000        0x0 c:/program files (x86)/gnu tools arm embedded/5.2 2015q4/bin/../lib/gcc/arm-none-eabi/5.2.1/armv7-m\libgcc.a(_arm_addsubdf3.o)
 .bss           0x00000000        0x0 c:/program files (x86)/gnu tools arm embedded/5.2 2015q4/bin/../lib/gcc/arm-none-eabi/5.2.1/armv7-m\libgcc.a(_arm_addsubdf3.o)
 .data          0x00000000        0x0 c:/program files (x86)/gnu tools arm embedded/5.2 2015q4/bin/../lib/gcc/arm-none-eabi/5.2.1/armv7-m\libgcc.a(_arm_muldivdf3.o)
 .bss           0x00000000        0x0 c:/program files (x86)/gnu tools arm embedded/5.2 2015q4/bin/../lib/gcc/arm-none-eabi/5.2.1/armv7-m\libgcc.a(_arm_muldivdf3.o)
 .data          0x00000000        0x0 c:/program files (x86)/gnu tools arm embedded/5.2 2015q4/bin/../lib/gcc/arm-none-eabi/5.2.1/armv7-m\libgcc.a(_arm_cmpdf2.o)
 .bss           0x00000000        0x0 c:/program files (x86)/gnu tools arm embedded/5.2 2015q4/bin/../lib/gcc/arm-none-eabi/5.2.1/armv7-m\libgcc.a(_arm_cmpdf2.o)
 .data          0x00000000        0x0 c:/program files (x86)/gnu tools arm embedded/5.2 2015q4/bin/../lib/gcc/arm-none-eabi/5.2.1/armv7-m\libgcc.a(_arm_truncdfsf2.o)
 .bss           0x00000000        0x0 c:/program files (x86)/gnu tools arm embedded/5.2 2015q4/bin/../lib/gcc/arm-none-eabi/5.2.1/armv7-m\libgcc.a(_arm_truncdfsf2.o)
 .data          0x00000000        0x0 c:/program files (x86)/gnu tools arm embedded/5.2 2015q4/bin/../lib/gcc/arm-none-eabi/5.2.1/armv7-m\libgcc.a(_arm_addsubsf3.o)
 .bss           0x00000000        0x0 c:/program files (x86)/gnu tools arm embedded/5.2 2015q4/bin/../lib/gcc/arm-none-eabi/5.2.1/armv7-m\libgcc.a(_arm_addsubsf3.o)
 .data          0x00000000        0x0 c:/program files (x86)/gnu tools arm embedded/5.2 2015q4/bin/../lib/gcc/arm-none-eabi/5.2.1/armv7-m\libgcc.a(_arm_muldivsf3.o)
 .bss           0x00000000        0x0 c:/program files (x86)/gnu tools arm embedded/5.2 2015q4/bin/../lib/gcc/arm-none-eabi/5.2.1/armv7-m\libgcc.a(_arm_muldivsf3.o)
 .data          0x00000000        0x0 c:/program files (x86)/gnu tools arm embedded/5.2 2015q4/bin/../lib/gcc/arm-none-eabi/5.2.1/armv7-m\libgcc.a(_arm_cmpsf2.o)
 .bss           0x00000000        0x0 c:/program files (x86)/gnu tools arm embedded/5.2 2015q4/bin/../lib/gcc/arm-none-eabi/5.2.1/armv7-m\libgcc.a(_arm_cmpsf2.o)
 .data          0x00000000        0x0 c:/program files (x86)/gnu tools arm embedded/5.2 2015q4/bin/../lib/gcc/arm-none-eabi/5.2.1/armv7-m\libgcc.a(_arm_fixsfsi.o)
 .bss           0x00000000        0x0 c:/program files (x86)/gnu tools arm embedded/5.2 2015q4/bin/../lib/gcc/arm-none-eabi/5.2.1/armv7-m\libgcc.a(_arm_fixsfsi.o)
 .data          0x00000000        0x0 c:/program files (x86)/gnu tools arm embedded/5.2 2015q4/bin/../lib/gcc/arm-none-eabi/5.2.1/armv7-m\libgcc.a(_arm_fixunssfsi.o)
 .bss           0x00000000        0x0 c:/program files (x86)/gnu tools arm embedded/5.2 2015q4/bin/../lib/gcc/arm-none-eabi/5.2.1/armv7-m\libgcc.a(_arm_fixunssfsi.o)
 .text          0x00000000        0x0 c:/program files (x86)/gnu tools arm embedded/5.2 2015q4/bin/../lib/gcc/arm-none-eabi/5.2.1/../../../../arm-none-eabi/lib/armv7-m\libc.a(lib_a-atoi.o)
 .data          0x00000000        0x0 c:/program files (x86)/gnu tools arm embedded/5.2 2015q4/bin/../lib/gcc/arm-none-eabi/5.2.1/../../../../arm-none-eabi/lib/armv7-m\libc.a(lib_a-atoi.o)
 .bss           0x00000000        0x0 c:/program files (x86)/gnu tools arm embedded/5.2 2015q4/bin/../lib/gcc/arm-none-eabi/5.2.1/../../../../arm-none-eabi/lib/armv7-m\libc.a(lib_a-atoi.o)
 .text._atoi_r  0x00000000        0x8 c:/program files (x86)/gnu tools arm embedded/5.2 2015q4/bin/../lib/gcc/arm-none-eabi/5.2.1/../../../../arm-none-eabi/lib/armv7-m\libc.a(lib_a-atoi.o)
 .text          0x00000000        0x0 c:/program files (x86)/gnu tools arm embedded/5.2 2015q4/bin/../lib/gcc/arm-none-eabi/5.2.1/../../../../arm-none-eabi/lib/armv7-m\libc.a(lib_a-bsearch.o)
 .data          0x00000000        0x0 c:/program files (x86)/gnu tools arm embedded/5.2 2015q4/bin/../lib/gcc/arm-none-eabi/5.2.1/../../../../arm-none-eabi/lib/armv7-m\libc.a(lib_a-bsearch.o)
 .bss           0x00000000        0x0 c:/program files (x86)/gnu tools arm embedded/5.2 2015q4/bin/../lib/gcc/arm-none-eabi/5.2.1/../../../../arm-none-eabi/lib/armv7-m\libc.a(lib_a-bsearch.o)
 .text          0x00000000        0x0 c:/program files (x86)/gnu tools arm embedded/5.2 2015q4/bin/../lib/gcc/arm-none-eabi/5.2.1/../../../../arm-none-eabi/lib/armv7-m\libc.a(lib_a-ctype_.o)
 .data          0x00000000        0x0 c:/program files (x86)/gnu tools arm embedded/5.2 2015q4/bin/../lib/gcc/arm-none-eabi/5.2.1/../../../../arm-none-eabi/lib/armv7-m\libc.a(lib_a-ctype_.o)
 .bss           0x00000000        0x0 c:/program files (x86)/gnu tools arm embedded/5.2 2015q4/bin/../lib/gcc/arm-none-eabi/5.2.1/../../../../arm-none-eabi/lib/armv7-m\libc.a(lib_a-ctype_.o)
 .text          0x00000000        0x0 c:/program files (x86)/gnu tools arm embedded/5.2 2015q4/bin/../lib/gcc/arm-none-eabi/5.2.1/../../../../arm-none-eabi/lib/armv7-m\libc.a(lib_a-errno.o)
 .data          0x00000000        0x0 c:/program files (x86)/gnu tools arm embedded/5.2 2015q4/bin/../lib/gcc/arm-none-eabi/5.2.1/../../../../arm-none-eabi/lib/armv7-m\libc.a(lib_a-errno.o)
 .bss           0x00000000        0x0 c:/program files (x86)/gnu tools arm embedded/5.2 2015q4/bin/../lib/gcc/arm-none-eabi/5.2.1/../../../../arm-none-eabi/lib/armv7-m\libc.a(lib_a-errno.o)
 .text          0x00000000        0x0 c:/program files (x86)/gnu tools arm embedded/5.2 2015q4/bin/../lib/gcc/arm-none-eabi/5.2.1/../../../../arm-none-eabi/lib/armv7-m\libc.a(lib_a-exit.o)
 .data          0x00000000        0x0 c:/program files (x86)/gnu tools arm embedded/5.2 2015q4/bin/../lib/gcc/arm-none-eabi/5.2.1/../../../../arm-none-eabi/lib/armv7-m\libc.a(lib_a-exit.o)
 .bss           0x00000000        0x0 c:/program files (x86)/gnu tools arm embedded/5.2 2015q4/bin/../lib/gcc/arm-none-eabi/5.2.1/../../../../arm-none-eabi/lib/armv7-m\libc.a(lib_a-exit.o)
 .text.exit     0x00000000       0x20 c:/program files (x86)/gnu tools arm embedded/5.2 2015q4/bin/../lib/gcc/arm-none-eabi/5.2.1/../../../../arm-none-eabi/lib/armv7-m\libc.a(lib_a-exit.o)
 .debug_frame   0x00000000       0x28 c:/program files (x86)/gnu tools arm embedded/5.2 2015q4/bin/../lib/gcc/arm-none-eabi/5.2.1/../../../../arm-none-eabi/lib/armv7-m\libc.a(lib_a-exit.o)
 .ARM.attributes
                0x00000000       0x2d c:/program files (x86)/gnu tools arm embedded/5.2 2015q4/bin/../lib/gcc/arm-none-eabi/5.2.1/../../../../arm-none-eabi/lib/armv7-m\libc.a(lib_a-exit.o)
 .text          0x00000000        0x0 c:/program files (x86)/gnu tools arm embedded/5.2 2015q4/bin/../lib/gcc/arm-none-eabi/5.2.1/../../../../arm-none-eabi/lib/armv7-m\libc.a(lib_a-impure.o)
 .data          0x00000000        0x0 c:/program files (x86)/gnu tools arm embedded/5.2 2015q4/bin/../lib/gcc/arm-none-eabi/5.2.1/../../../../arm-none-eabi/lib/armv7-m\libc.a(lib_a-impure.o)
 .bss           0x00000000        0x0 c:/program files (x86)/gnu tools arm embedded/5.2 2015q4/bin/../lib/gcc/arm-none-eabi/5.2.1/../../../../arm-none-eabi/lib/armv7-m\libc.a(lib_a-impure.o)
 .text          0x00000000        0x0 c:/program files (x86)/gnu tools arm embedded/5.2 2015q4/bin/../lib/gcc/arm-none-eabi/5.2.1/../../../../arm-none-eabi/lib/armv7-m\libc.a(lib_a-init.o)
 .data          0x00000000        0x0 c:/program files (x86)/gnu tools arm embedded/5.2 2015q4/bin/../lib/gcc/arm-none-eabi/5.2.1/../../../../arm-none-eabi/lib/armv7-m\libc.a(lib_a-init.o)
 .bss           0x00000000        0x0 c:/program files (x86)/gnu tools arm embedded/5.2 2015q4/bin/../lib/gcc/arm-none-eabi/5.2.1/../../../../arm-none-eabi/lib/armv7-m\libc.a(lib_a-init.o)
 .data          0x00000000        0x0 c:/program files (x86)/gnu tools arm embedded/5.2 2015q4/bin/../lib/gcc/arm-none-eabi/5.2.1/../../../../arm-none-eabi/lib/armv7-m\libc.a(lib_a-memcpy.o)
 .bss           0x00000000        0x0 c:/program files (x86)/gnu tools arm embedded/5.2 2015q4/bin/../lib/gcc/arm-none-eabi/5.2.1/../../../../arm-none-eabi/lib/armv7-m\libc.a(lib_a-memcpy.o)
 .text          0x00000000        0x0 c:/program files (x86)/gnu tools arm embedded/5.2 2015q4/bin/../lib/gcc/arm-none-eabi/5.2.1/../../../../arm-none-eabi/lib/armv7-m\libc.a(lib_a-memset.o)
 .data          0x00000000        0x0 c:/program files (x86)/gnu tools arm embedded/5.2 2015q4/bin/../lib/gcc/arm-none-eabi/5.2.1/../../../../arm-none-eabi/lib/armv7-m\libc.a(lib_a-memset.o)
 .bss           0x00000000        0x0 c:/program files (x86)/gnu tools arm embedded/5.2 2015q4/bin/../lib/gcc/arm-none-eabi/5.2.1/../../../../arm-none-eabi/lib/armv7-m\libc.a(lib_a-memset.o)
 .text          0x00000000        0x0 c:/program files (x86)/gnu tools arm embedded/5.2 2015q4/bin/../lib/gcc/arm-none-eabi/5.2.1/../../../../arm-none-eabi/lib/armv7-m\libc.a(lib_a-strcat.o)
 .data          0x00000000        0x0 c:/program files (x86)/gnu tools arm embedded/5.2 2015q4/bin/../lib/gcc/arm-none-eabi/5.2.1/../../../../arm-none-eabi/lib/armv7-m\libc.a(lib_a-strcat.o)
 .bss           0x00000000        0x0 c:/program files (x86)/gnu tools arm embedded/5.2 2015q4/bin/../lib/gcc/arm-none-eabi/5.2.1/../../../../arm-none-eabi/lib/armv7-m\libc.a(lib_a-strcat.o)
 .text          0x00000000        0x0 c:/program files (x86)/gnu tools arm embedded/5.2 2015q4/bin/../lib/gcc/arm-none-eabi/5.2.1/../../../../arm-none-eabi/lib/armv7-m\libc.a(lib_a-strchr.o)
 .data          0x00000000        0x0 c:/program files (x86)/gnu tools arm embedded/5.2 2015q4/bin/../lib/gcc/arm-none-eabi/5.2.1/../../../../arm-none-eabi/lib/armv7-m\libc.a(lib_a-strchr.o)
 .bss           0x00000000        0x0 c:/program files (x86)/gnu tools arm embedded/5.2 2015q4/bin/../lib/gcc/arm-none-eabi/5.2.1/../../../../arm-none-eabi/lib/armv7-m\libc.a(lib_a-strchr.o)
 .text          0x00000000        0x0 c:/program files (x86)/gnu tools arm embedded/5.2 2015q4/bin/../lib/gcc/arm-none-eabi/5.2.1/../../../../arm-none-eabi/lib/armv7-m\libc.a(lib_a-strcpy.o)
 .data          0x00000000        0x0 c:/program files (x86)/gnu tools arm embedded/5.2 2015q4/bin/../lib/gcc/arm-none-eabi/5.2.1/../../../../arm-none-eabi/lib/armv7-m\libc.a(lib_a-strcpy.o)
 .bss           0x00000000        0x0 c:/program files (x86)/gnu tools arm embedded/5.2 2015q4/bin/../lib/gcc/arm-none-eabi/5.2.1/../../../../arm-none-eabi/lib/armv7-m\libc.a(lib_a-strcpy.o)
 .text          0x00000000        0x0 c:/program files (x86)/gnu tools arm embedded/5.2 2015q4/bin/../lib/gcc/arm-none-eabi/5.2.1/../../../../arm-none-eabi/lib/armv7-m\libc.a(lib_a-strlen-stub.o)
 .data          0x00000000        0x0 c:/program files (x86)/gnu tools arm embedded/5.2 2015q4/bin/../lib/gcc/arm-none-eabi/5.2.1/../../../../arm-none-eabi/lib/armv7-m\libc.a(lib_a-strlen-stub.o)
 .bss           0x00000000        0x0 c:/program files (x86)/gnu tools arm embedded/5.2 2015q4/bin/../lib/gcc/arm-none-eabi/5.2.1/../../../../arm-none-eabi/lib/armv7-m\libc.a(lib_a-strlen-stub.o)
 .text          0x00000000        0x0 c:/program files (x86)/gnu tools arm embedded/5.2 2015q4/bin/../lib/gcc/arm-none-eabi/5.2.1/../../../../arm-none-eabi/lib/armv7-m\libc.a(lib_a-strncasecmp.o)
 .data          0x00000000        0x0 c:/program files (x86)/gnu tools arm embedded/5.2 2015q4/bin/../lib/gcc/arm-none-eabi/5.2.1/../../../../arm-none-eabi/lib/armv7-m\libc.a(lib_a-strncasecmp.o)
 .bss           0x00000000        0x0 c:/program files (x86)/gnu tools arm embedded/5.2 2015q4/bin/../lib/gcc/arm-none-eabi/5.2.1/../../../../arm-none-eabi/lib/armv7-m\libc.a(lib_a-strncasecmp.o)
 .text          0x00000000        0x0 c:/program files (x86)/gnu tools arm embedded/5.2 2015q4/bin/../lib/gcc/arm-none-eabi/5.2.1/../../../../arm-none-eabi/lib/armv7-m\libc.a(lib_a-strncpy.o)
 .data          0x00000000        0x0 c:/program files (x86)/gnu tools arm embedded/5.2 2015q4/bin/../lib/gcc/arm-none-eabi/5.2.1/../../../../arm-none-eabi/lib/armv7-m\libc.a(lib_a-strncpy.o)
 .bss           0x00000000        0x0 c:/program files (x86)/gnu tools arm embedded/5.2 2015q4/bin/../lib/gcc/arm-none-eabi/5.2.1/../../../../arm-none-eabi/lib/armv7-m\libc.a(lib_a-strncpy.o)
 .text          0x00000000        0x0 c:/program files (x86)/gnu tools arm embedded/5.2 2015q4/bin/../lib/gcc/arm-none-eabi/5.2.1/../../../../arm-none-eabi/lib/armv7-m\libc.a(lib_a-strstr.o)
 .data          0x00000000        0x0 c:/program files (x86)/gnu tools arm embedded/5.2 2015q4/bin/../lib/gcc/arm-none-eabi/5.2.1/../../../../arm-none-eabi/lib/armv7-m\libc.a(lib_a-strstr.o)
 .bss           0x00000000        0x0 c:/program files (x86)/gnu tools arm embedded/5.2 2015q4/bin/../lib/gcc/arm-none-eabi/5.2.1/../../../../arm-none-eabi/lib/armv7-m\libc.a(lib_a-strstr.o)
 .text          0x00000000        0x0 c:/program files (x86)/gnu tools arm embedded/5.2 2015q4/bin/../lib/gcc/arm-none-eabi/5.2.1/../../../../arm-none-eabi/lib/armv7-m\libc.a(lib_a-strtok.o)
 .data          0x00000000        0x0 c:/program files (x86)/gnu tools arm embedded/5.2 2015q4/bin/../lib/gcc/arm-none-eabi/5.2.1/../../../../arm-none-eabi/lib/armv7-m\libc.a(lib_a-strtok.o)
 .bss           0x00000000        0x0 c:/program files (x86)/gnu tools arm embedded/5.2 2015q4/bin/../lib/gcc/arm-none-eabi/5.2.1/../../../../arm-none-eabi/lib/armv7-m\libc.a(lib_a-strtok.o)
 .text          0x00000000        0x0 c:/program files (x86)/gnu tools arm embedded/5.2 2015q4/bin/../lib/gcc/arm-none-eabi/5.2.1/../../../../arm-none-eabi/lib/armv7-m\libc.a(lib_a-strtok_r.o)
 .data          0x00000000        0x0 c:/program files (x86)/gnu tools arm embedded/5.2 2015q4/bin/../lib/gcc/arm-none-eabi/5.2.1/../../../../arm-none-eabi/lib/armv7-m\libc.a(lib_a-strtok_r.o)
 .bss           0x00000000        0x0 c:/program files (x86)/gnu tools arm embedded/5.2 2015q4/bin/../lib/gcc/arm-none-eabi/5.2.1/../../../../arm-none-eabi/lib/armv7-m\libc.a(lib_a-strtok_r.o)
 .text.strtok_r
                0x00000000        0x8 c:/program files (x86)/gnu tools arm embedded/5.2 2015q4/bin/../lib/gcc/arm-none-eabi/5.2.1/../../../../arm-none-eabi/lib/armv7-m\libc.a(lib_a-strtok_r.o)
 .text          0x00000000        0x0 c:/program files (x86)/gnu tools arm embedded/5.2 2015q4/bin/../lib/gcc/arm-none-eabi/5.2.1/../../../../arm-none-eabi/lib/armv7-m\libc.a(lib_a-strtol.o)
 .data          0x00000000        0x0 c:/program files (x86)/gnu tools arm embedded/5.2 2015q4/bin/../lib/gcc/arm-none-eabi/5.2.1/../../../../arm-none-eabi/lib/armv7-m\libc.a(lib_a-strtol.o)
 .bss           0x00000000        0x0 c:/program files (x86)/gnu tools arm embedded/5.2 2015q4/bin/../lib/gcc/arm-none-eabi/5.2.1/../../../../arm-none-eabi/lib/armv7-m\libc.a(lib_a-strtol.o)
 .text          0x00000000        0x0 c:/program files (x86)/gnu tools arm embedded/5.2 2015q4/bin/../lib/gcc/arm-none-eabi/5.2.1/../../../../arm-none-eabi/lib/armv7-m\libc.a(lib_a-__call_atexit.o)
 .data          0x00000000        0x0 c:/program files (x86)/gnu tools arm embedded/5.2 2015q4/bin/../lib/gcc/arm-none-eabi/5.2.1/../../../../arm-none-eabi/lib/armv7-m\libc.a(lib_a-__call_atexit.o)
 .bss           0x00000000        0x0 c:/program files (x86)/gnu tools arm embedded/5.2 2015q4/bin/../lib/gcc/arm-none-eabi/5.2.1/../../../../arm-none-eabi/lib/armv7-m\libc.a(lib_a-__call_atexit.o)
 .text.__call_exitprocs
                0x00000000       0xd8 c:/program files (x86)/gnu tools arm embedded/5.2 2015q4/bin/../lib/gcc/arm-none-eabi/5.2.1/../../../../arm-none-eabi/lib/armv7-m\libc.a(lib_a-__call_atexit.o)
 .text          0x00000000        0x0 c:/program files (x86)/gnu tools arm embedded/5.2 2015q4/bin/../lib/gcc/arm-none-eabi/5.2.1/../../../../arm-none-eabi/lib/armv7-m\libc.a(lib_a-atexit.o)
 .data          0x00000000        0x0 c:/program files (x86)/gnu tools arm embedded/5.2 2015q4/bin/../lib/gcc/arm-none-eabi/5.2.1/../../../../arm-none-eabi/lib/armv7-m\libc.a(lib_a-atexit.o)
 .bss           0x00000000        0x0 c:/program files (x86)/gnu tools arm embedded/5.2 2015q4/bin/../lib/gcc/arm-none-eabi/5.2.1/../../../../arm-none-eabi/lib/armv7-m\libc.a(lib_a-atexit.o)
 .text          0x00000000        0x0 c:/program files (x86)/gnu tools arm embedded/5.2 2015q4/bin/../lib/gcc/arm-none-eabi/5.2.1/../../../../arm-none-eabi/lib/armv7-m\libc.a(lib_a-fini.o)
 .data          0x00000000        0x0 c:/program files (x86)/gnu tools arm embedded/5.2 2015q4/bin/../lib/gcc/arm-none-eabi/5.2.1/../../../../arm-none-eabi/lib/armv7-m\libc.a(lib_a-fini.o)
 .bss           0x00000000        0x0 c:/program files (x86)/gnu tools arm embedded/5.2 2015q4/bin/../lib/gcc/arm-none-eabi/5.2.1/../../../../arm-none-eabi/lib/armv7-m\libc.a(lib_a-fini.o)
 .text          0x00000000        0x0 c:/program files (x86)/gnu tools arm embedded/5.2 2015q4/bin/../lib/gcc/arm-none-eabi/5.2.1/../../../../arm-none-eabi/lib/armv7-m\libc.a(lib_a-memchr-stub.o)
 .data          0x00000000        0x0 c:/program files (x86)/gnu tools arm embedded/5.2 2015q4/bin/../lib/gcc/arm-none-eabi/5.2.1/../../../../arm-none-eabi/lib/armv7-m\libc.a(lib_a-memchr-stub.o)
 .bss           0x00000000        0x0 c:/program files (x86)/gnu tools arm embedded/5.2 2015q4/bin/../lib/gcc/arm-none-eabi/5.2.1/../../../../arm-none-eabi/lib/armv7-m\libc.a(lib_a-memchr-stub.o)
 .text          0x00000000        0x0 c:/program files (x86)/gnu tools arm embedded/5.2 2015q4/bin/../lib/gcc/arm-none-eabi/5.2.1/../../../../arm-none-eabi/lib/armv7-m\libc.a(lib_a-memcmp.o)
 .data          0x00000000        0x0 c:/program files (x86)/gnu tools arm embedded/5.2 2015q4/bin/../lib/gcc/arm-none-eabi/5.2.1/../../../../arm-none-eabi/lib/armv7-m\libc.a(lib_a-memcmp.o)
 .bss           0x00000000        0x0 c:/program files (x86)/gnu tools arm embedded/5.2 2015q4/bin/../lib/gcc/arm-none-eabi/5.2.1/../../../../arm-none-eabi/lib/armv7-m\libc.a(lib_a-memcmp.o)
 .text          0x00000000        0x0 c:/program files (x86)/gnu tools arm embedded/5.2 2015q4/bin/../lib/gcc/arm-none-eabi/5.2.1/../../../../arm-none-eabi/lib/armv7-m\libc.a(lib_a-__atexit.o)
 .data          0x00000000        0x0 c:/program files (x86)/gnu tools arm embedded/5.2 2015q4/bin/../lib/gcc/arm-none-eabi/5.2.1/../../../../arm-none-eabi/lib/armv7-m\libc.a(lib_a-__atexit.o)
 .bss           0x00000000        0x0 c:/program files (x86)/gnu tools arm embedded/5.2 2015q4/bin/../lib/gcc/arm-none-eabi/5.2.1/../../../../arm-none-eabi/lib/armv7-m\libc.a(lib_a-__atexit.o)
 .text          0x00000000        0x0 c:/program files (x86)/gnu tools arm embedded/5.2 2015q4/bin/../lib/gcc/arm-none-eabi/5.2.1/armv7-m/crtend.o
 .data          0x00000000        0x0 c:/program files (x86)/gnu tools arm embedded/5.2 2015q4/bin/../lib/gcc/arm-none-eabi/5.2.1/armv7-m/crtend.o
 .bss           0x00000000        0x0 c:/program files (x86)/gnu tools arm embedded/5.2 2015q4/bin/../lib/gcc/arm-none-eabi/5.2.1/armv7-m/crtend.o
 .eh_frame      0x00000000        0x4 c:/program files (x86)/gnu tools arm embedded/5.2 2015q4/bin/../lib/gcc/arm-none-eabi/5.2.1/armv7-m/crtend.o
 .jcr           0x00000000        0x4 c:/program files (x86)/gnu tools arm embedded/5.2 2015q4/bin/../lib/gcc/arm-none-eabi/5.2.1/armv7-m/crtend.o
 .text          0x00000000        0x0 c:/program files (x86)/gnu tools arm embedded/5.2 2015q4/bin/../lib/gcc/arm-none-eabi/5.2.1/armv7-m/crtn.o
 .data          0x00000000        0x0 c:/program files (x86)/gnu tools arm embedded/5.2 2015q4/bin/../lib/gcc/arm-none-eabi/5.2.1/armv7-m/crtn.o
 .bss           0x00000000        0x0 c:/program files (x86)/gnu tools arm embedded/5.2 2015q4/bin/../lib/gcc/arm-none-eabi/5.2.1/armv7-m/crtn.o

Memory Configuration

Name             Origin             Length             Attributes
FLASH            0x08003000         0x0001cc00         xr
RAM              0x20000000         0x00005000         xrw
MEMORY_B1        0x60000000         0x00000000         xr
*default*        0x00000000         0xffffffff

Linker script and memory map

LOAD c:/program files (x86)/gnu tools arm embedded/5.2 2015q4/bin/../lib/gcc/arm-none-eabi/5.2.1/armv7-m/crti.o
LOAD c:/program files (x86)/gnu tools arm embedded/5.2 2015q4/bin/../lib/gcc/arm-none-eabi/5.2.1/armv7-m/crtbegin.o
LOAD c:/program files (x86)/gnu tools arm embedded/5.2 2015q4/bin/../lib/gcc/arm-none-eabi/5.2.1/../../../../arm-none-eabi/lib/armv7-m/crt0.o
LOAD obj/CUPDRONE/drv_adc.o
LOAD obj/CUPDRONE/drv_adxl345.o
LOAD obj/CUPDRONE/drv_bma280.o
LOAD obj/CUPDRONE/drv_bmp085.o
LOAD obj/CUPDRONE/drv_ms5611.o
LOAD obj/CUPDRONE/drv_hcsr04.o
LOAD obj/CUPDRONE/drv_hmc5883l.o
LOAD obj/CUPDRONE/drv_ledring.o
LOAD obj/CUPDRONE/drv_mma845x.o
LOAD obj/CUPDRONE/drv_mpu3050.o
LOAD obj/CUPDRONE/drv_mpu6050.o
LOAD obj/CUPDRONE/drv_l3g4200d.o
LOAD obj/CUPDRONE/drv_pwm.o
LOAD obj/CUPDRONE/drv_spi.o
LOAD obj/CUPDRONE/drv_timer.o
LOAD obj/CUPDRONE/hexairbot.o
LOAD obj/CUPDRONE/startup_stm32f10x_md_gcc.o
LOAD obj/CUPDRONE/buzzer.o
LOAD obj/CUPDRONE/cli.o
LOAD obj/CUPDRONE/config.o
LOAD obj/CUPDRONE/gps.o
LOAD obj/CUPDRONE/imu.o
LOAD obj/CUPDRONE/main.o
LOAD obj/CUPDRONE/mixer.o
LOAD obj/CUPDRONE/mw.o
LOAD obj/CUPDRONE/sensors.o
LOAD obj/CUPDRONE/serial.o
LOAD obj/CUPDRONE/sbus.o
LOAD obj/CUPDRONE/sumd.o
LOAD obj/CUPDRONE/spektrum.o
LOAD obj/CUPDRONE/telemetry.o
LOAD obj/CUPDRONE/drv_gpio.o
LOAD obj/CUPDRONE/drv_i2c.o
LOAD obj/CUPDRONE/drv_i2c_soft.o
LOAD obj/CUPDRONE/drv_system.o
LOAD obj/CUPDRONE/drv_serial.o
LOAD obj/CUPDRONE/drv_softserial.o
LOAD obj/CUPDRONE/drv_uart.o
LOAD obj/CUPDRONE/drv_vcom.o
LOAD obj/CUPDRONE/drv_vcom_q.o
LOAD obj/CUPDRONE/printf.o
LOAD obj/CUPDRONE/utils.o
LOAD obj/CUPDRONE/system_stm32f10x.o
LOAD obj/CUPDRONE/misc.o
LOAD obj/CUPDRONE/stm32f10x_adc.o
LOAD obj/CUPDRONE/stm32f10x_bkp.o
LOAD obj/CUPDRONE/stm32f10x_can.o
LOAD obj/CUPDRONE/stm32f10x_cec.o
LOAD obj/CUPDRONE/stm32f10x_crc.o
LOAD obj/CUPDRONE/stm32f10x_dac.o
LOAD obj/CUPDRONE/stm32f10x_dbgmcu.o
LOAD obj/CUPDRONE/stm32f10x_dma.o
LOAD obj/CUPDRONE/stm32f10x_exti.o
LOAD obj/CUPDRONE/stm32f10x_flash.o
LOAD obj/CUPDRONE/stm32f10x_fsmc.o
LOAD obj/CUPDRONE/stm32f10x_gpio.o
LOAD obj/CUPDRONE/stm32f10x_i2c.o
LOAD obj/CUPDRONE/stm32f10x_iwdg.o
LOAD obj/CUPDRONE/stm32f10x_pwr.o
LOAD obj/CUPDRONE/stm32f10x_rcc.o
LOAD obj/CUPDRONE/stm32f10x_rtc.o
LOAD obj/CUPDRONE/stm32f10x_sdio.o
LOAD obj/CUPDRONE/stm32f10x_spi.o
LOAD obj/CUPDRONE/stm32f10x_tim.o
LOAD obj/CUPDRONE/stm32f10x_usart.o
LOAD obj/CUPDRONE/stm32f10x_wwdg.o
LOAD obj/CUPDRONE/croutine.o
LOAD obj/CUPDRONE/list.o
LOAD obj/CUPDRONE/queue.o
LOAD obj/CUPDRONE/tasks.o
LOAD obj/CUPDRONE/timers.o
LOAD obj/CUPDRONE/cmsis_os.o
LOAD obj/CUPDRONE/heap_2.o
LOAD obj/CUPDRONE/port.o
LOAD obj/CUPDRONE/usb_core.o
LOAD obj/CUPDRONE/usb_init.o
LOAD obj/CUPDRONE/usb_int.o
LOAD obj/CUPDRONE/usb_mem.o
LOAD obj/CUPDRONE/usb_regs.o
LOAD obj/CUPDRONE/usb_sil.o
LOAD obj/CUPDRONE/hw_config.o
LOAD obj/CUPDRONE/usb_desc.o
LOAD obj/CUPDRONE/usb_endp.o
LOAD obj/CUPDRONE/usb_istr.o
LOAD obj/CUPDRONE/usb_prop.o
LOAD obj/CUPDRONE/usb_pwr.o
LOAD obj/CUPDRONE/thread_main.o
LOAD obj/CUPDRONE/thread_menu.o
LOAD obj/CUPDRONE/thread_mw.o
LOAD obj/CUPDRONE/thread_nrf.o
LOAD c:/program files (x86)/gnu tools arm embedded/5.2 2015q4/bin/../lib/gcc/arm-none-eabi/5.2.1/../../../../arm-none-eabi/lib/armv7-m\libm.a
START GROUP
LOAD c:/program files (x86)/gnu tools arm embedded/5.2 2015q4/bin/../lib/gcc/arm-none-eabi/5.2.1/armv7-m\libgcc.a
LOAD c:/program files (x86)/gnu tools arm embedded/5.2 2015q4/bin/../lib/gcc/arm-none-eabi/5.2.1/../../../../arm-none-eabi/lib/armv7-m\libc.a
END GROUP
LOAD c:/program files (x86)/gnu tools arm embedded/5.2 2015q4/bin/../lib/gcc/arm-none-eabi/5.2.1/armv7-m/crtend.o
LOAD c:/program files (x86)/gnu tools arm embedded/5.2 2015q4/bin/../lib/gcc/arm-none-eabi/5.2.1/armv7-m/crtn.o
                0x20005000                _estack = 0x20005000
                0x00000000                _Min_Heap_Size = 0x0
                0x00000400                _Min_Stack_Size = 0x400

.isr_vector     0x08003000      0x10c
                0x08003000                . = ALIGN (0x4)
 *(.isr_vector)
 .isr_vector    0x08003000      0x10c obj/CUPDRONE/startup_stm32f10x_md_gcc.o
                0x08003000                g_pfnVectors
                0x0800310c                . = ALIGN (0x4)

.text           0x08003110    0x153bc
                0x08003110                . = ALIGN (0x4)
 *(.text)
 .text          0x08003110       0xa4 c:/program files (x86)/gnu tools arm embedded/5.2 2015q4/bin/../lib/gcc/arm-none-eabi/5.2.1/armv7-m/crtbegin.o
 .text          0x080031b4      0x370 c:/program files (x86)/gnu tools arm embedded/5.2 2015q4/bin/../lib/gcc/arm-none-eabi/5.2.1/armv7-m\libgcc.a(_arm_addsubdf3.o)
                0x080031b4                __aeabi_drsub
                0x080031bc                __aeabi_dsub
                0x080031bc                __subdf3
                0x080031c0                __aeabi_dadd
                0x080031c0                __adddf3
                0x08003438                __floatunsidf
                0x08003438                __aeabi_ui2d
                0x08003458                __floatsidf
                0x08003458                __aeabi_i2d
                0x0800347c                __aeabi_f2d
                0x0800347c                __extendsfdf2
                0x080034b8                __floatundidf
                0x080034b8                __aeabi_ul2d
                0x080034c8                __floatdidf
                0x080034c8                __aeabi_l2d
 .text          0x08003524      0x424 c:/program files (x86)/gnu tools arm embedded/5.2 2015q4/bin/../lib/gcc/arm-none-eabi/5.2.1/armv7-m\libgcc.a(_arm_muldivdf3.o)
                0x08003524                __aeabi_dmul
                0x08003524                __muldf3
                0x08003778                __divdf3
                0x08003778                __aeabi_ddiv
 .text          0x08003948      0x110 c:/program files (x86)/gnu tools arm embedded/5.2 2015q4/bin/../lib/gcc/arm-none-eabi/5.2.1/armv7-m\libgcc.a(_arm_cmpdf2.o)
                0x08003948                __gtdf2
                0x08003948                __gedf2
                0x08003950                __ltdf2
                0x08003950                __ledf2
                0x08003958                __nedf2
                0x08003958                __eqdf2
                0x08003958                __cmpdf2
                0x080039d4                __aeabi_cdrcmple
                0x080039e4                __aeabi_cdcmpeq
                0x080039e4                __aeabi_cdcmple
                0x080039f4                __aeabi_dcmpeq
                0x08003a08                __aeabi_dcmplt
                0x08003a1c                __aeabi_dcmple
                0x08003a30                __aeabi_dcmpge
                0x08003a44                __aeabi_dcmpgt
 .text          0x08003a58       0xa0 c:/program files (x86)/gnu tools arm embedded/5.2 2015q4/bin/../lib/gcc/arm-none-eabi/5.2.1/armv7-m\libgcc.a(_arm_truncdfsf2.o)
                0x08003a58                __truncdfsf2
                0x08003a58                __aeabi_d2f
 .text          0x08003af8      0x21c c:/program files (x86)/gnu tools arm embedded/5.2 2015q4/bin/../lib/gcc/arm-none-eabi/5.2.1/armv7-m\libgcc.a(_arm_addsubsf3.o)
                0x08003af8                __aeabi_frsub
                0x08003b00                __subsf3
                0x08003b00                __aeabi_fsub
                0x08003b04                __aeabi_fadd
                0x08003b04                __addsf3
                0x08003c64                __aeabi_ui2f
                0x08003c64                __floatunsisf
                0x08003c6c                __aeabi_i2f
                0x08003c6c                __floatsisf
                0x08003c88                __aeabi_ul2f
                0x08003c88                __floatundisf
                0x08003c98                __aeabi_l2f
                0x08003c98                __floatdisf
 .text          0x08003d14      0x2a0 c:/program files (x86)/gnu tools arm embedded/5.2 2015q4/bin/../lib/gcc/arm-none-eabi/5.2.1/armv7-m\libgcc.a(_arm_muldivsf3.o)
                0x08003d14                __mulsf3
                0x08003d14                __aeabi_fmul
                0x08003e7c                __aeabi_fdiv
                0x08003e7c                __divsf3
 .text          0x08003fb4       0xec c:/program files (x86)/gnu tools arm embedded/5.2 2015q4/bin/../lib/gcc/arm-none-eabi/5.2.1/armv7-m\libgcc.a(_arm_cmpsf2.o)
                0x08003fb4                __gesf2
                0x08003fb4                __gtsf2
                0x08003fbc                __lesf2
                0x08003fbc                __ltsf2
                0x08003fc4                __nesf2
                0x08003fc4                __eqsf2
                0x08003fc4                __cmpsf2
                0x08004024                __aeabi_cfrcmple
                0x0800402c                __aeabi_cfcmpeq
                0x0800402c                __aeabi_cfcmple
                0x0800403c                __aeabi_fcmpeq
                0x08004050                __aeabi_fcmplt
                0x08004064                __aeabi_fcmple
                0x08004078                __aeabi_fcmpge
                0x0800408c                __aeabi_fcmpgt
 .text          0x080040a0       0x4c c:/program files (x86)/gnu tools arm embedded/5.2 2015q4/bin/../lib/gcc/arm-none-eabi/5.2.1/armv7-m\libgcc.a(_arm_fixsfsi.o)
                0x080040a0                __aeabi_f2iz
                0x080040a0                __fixsfsi
 .text          0x080040ec       0x40 c:/program files (x86)/gnu tools arm embedded/5.2 2015q4/bin/../lib/gcc/arm-none-eabi/5.2.1/armv7-m\libgcc.a(_arm_fixunssfsi.o)
                0x080040ec                __fixunssfsi
                0x080040ec                __aeabi_f2uiz
 .text          0x0800412c       0xec c:/program files (x86)/gnu tools arm embedded/5.2 2015q4/bin/../lib/gcc/arm-none-eabi/5.2.1/../../../../arm-none-eabi/lib/armv7-m\libc.a(lib_a-memcpy.o)
                0x0800412c                memcpy
 *(.text*)
 .text.adcInit  0x08004218       0xf0 obj/CUPDRONE/drv_adc.o
                0x08004218                adcInit
 .text.adcGetChannel
                0x08004308       0x10 obj/CUPDRONE/drv_adc.o
                0x08004308                adcGetChannel
 .text.adxl345Read
                0x08004318       0xe0 obj/CUPDRONE/drv_adxl345.o
 .text.adxl345Init
                0x080043f8       0x64 obj/CUPDRONE/drv_adxl345.o
 .text.adxl345Detect
                0x0800445c       0x5c obj/CUPDRONE/drv_adxl345.o
                0x0800445c                adxl345Detect
 .text.bma280Read
                0x080044b8       0x5c obj/CUPDRONE/drv_bma280.o
 .text.bma280Init
                0x08004514       0x30 obj/CUPDRONE/drv_bma280.o
 .text.bma280Detect
                0x08004544       0x3c obj/CUPDRONE/drv_bma280.o
                0x08004544                bma280Detect
 .text.bmp085_calculate
                0x08004580       0xe4 obj/CUPDRONE/drv_bmp085.o
 .text.bmp085_get_up
                0x08004664       0x58 obj/CUPDRONE/drv_bmp085.o
 .text.bmp085_get_ut
                0x080046bc       0x40 obj/CUPDRONE/drv_bmp085.o
 .text.bmp085_start_up
                0x080046fc       0x24 obj/CUPDRONE/drv_bmp085.o
 .text.bmp085_start_ut
                0x08004720       0x14 obj/CUPDRONE/drv_bmp085.o
 .text.EXTI15_10_IRQHandler
                0x08004734       0x24 obj/CUPDRONE/drv_bmp085.o
                0x08004734                EXTI15_10_IRQHandler
 .text.bmp085Detect
                0x08004758      0x1dc obj/CUPDRONE/drv_bmp085.o
                0x08004758                bmp085Detect
 .text.ms5611_calculate
                0x08004934      0x154 obj/CUPDRONE/drv_ms5611.o
 .text.ms5611_read_adc
                0x08004a88       0x28 obj/CUPDRONE/drv_ms5611.o
 .text.ms5611_get_up
                0x08004ab0       0x10 obj/CUPDRONE/drv_ms5611.o
 .text.ms5611_get_ut
                0x08004ac0       0x10 obj/CUPDRONE/drv_ms5611.o
 .text.ms5611_start_up
                0x08004ad0        0xa obj/CUPDRONE/drv_ms5611.o
 .text.ms5611_start_ut
                0x08004ada        0xa obj/CUPDRONE/drv_ms5611.o
 .text.ms5611Detect
                0x08004ae4      0x13c obj/CUPDRONE/drv_ms5611.o
                0x08004ae4                ms5611Detect
 .text.ECHO_EXTI_IRQHandler
                0x08004c20       0x50 obj/CUPDRONE/drv_hcsr04.o
                0x08004c20                ECHO_EXTI_IRQHandler
 .text.EXTI1_IRQHandler
                0x08004c70        0x4 obj/CUPDRONE/drv_hcsr04.o
                0x08004c70                EXTI1_IRQHandler
 .text.EXTI9_5_IRQHandler
                0x08004c74        0x4 obj/CUPDRONE/drv_hcsr04.o
                0x08004c74                EXTI9_5_IRQHandler
 .text.hcsr04_init
                0x08004c78       0xd4 obj/CUPDRONE/drv_hcsr04.o
                0x08004c78                hcsr04_init
 .text.hcsr04_get_distance
                0x08004d4c       0x3c obj/CUPDRONE/drv_hcsr04.o
                0x08004d4c                hcsr04_get_distance
 .text.hmc5883lDetect
                0x08004d88       0x38 obj/CUPDRONE/drv_hmc5883l.o
                0x08004d88                hmc5883lDetect
 .text.hmc5883lRead
                0x08004dc0       0x8c obj/CUPDRONE/drv_hmc5883l.o
                0x08004dc0                hmc5883lRead
 .text.hmc5883lInit
                0x08004e4c      0x1c8 obj/CUPDRONE/drv_hmc5883l.o
                0x08004e4c                hmc5883lInit
 .text.mma8452Read
                0x08005014       0x70 obj/CUPDRONE/drv_mma845x.o
 .text.mma8452Init
                0x08005084       0x90 obj/CUPDRONE/drv_mma845x.o
 .text.mma8452Detect
                0x08005114       0x54 obj/CUPDRONE/drv_mma845x.o
                0x08005114                mma8452Detect
 .text.mpu3050ReadTemp
                0x08005168       0x2e obj/CUPDRONE/drv_mpu3050.o
 *fill*         0x08005196        0x2 
 .text.mpu3050Read
                0x08005198       0x68 obj/CUPDRONE/drv_mpu3050.o
 .text.mpu3050Init
                0x08005200       0x5c obj/CUPDRONE/drv_mpu3050.o
 .text.mpu3050Detect
                0x0800525c       0x78 obj/CUPDRONE/drv_mpu3050.o
                0x0800525c                mpu3050Detect
 .text.mpu6050AccInit
                0x080052d4       0x28 obj/CUPDRONE/drv_mpu6050.o
 .text.mpu6050GyroRead
                0x080052fc       0x68 obj/CUPDRONE/drv_mpu6050.o
 .text.mpu6050AccRead
                0x08005364       0x54 obj/CUPDRONE/drv_mpu6050.o
 .text.mpu6050GyroInit
                0x080053b8       0xac obj/CUPDRONE/drv_mpu6050.o
 .text.mpu6050Detect
                0x08005464      0x11c obj/CUPDRONE/drv_mpu6050.o
                0x08005464                mpu6050Detect
 .text.l3g4200dRead
                0x08005580       0x68 obj/CUPDRONE/drv_l3g4200d.o
 .text.l3g4200dInit
                0x080055e8       0x44 obj/CUPDRONE/drv_l3g4200d.o
 .text.l3g4200dDetect
                0x0800562c       0x64 obj/CUPDRONE/drv_l3g4200d.o
                0x0800562c                l3g4200dDetect
 .text.pwmWriteBrushed
                0x08005690       0x24 obj/CUPDRONE/drv_pwm.o
 .text.pwmWriteStandard
                0x080056b4       0x10 obj/CUPDRONE/drv_pwm.o
 .text.pwmOutConfig
                0x080056c4      0x124 obj/CUPDRONE/drv_pwm.o
 .text.ppmCallback
                0x080057e8       0x84 obj/CUPDRONE/drv_pwm.o
 .text.pwmICConfig
                0x0800586c       0x32 obj/CUPDRONE/drv_pwm.o
                0x0800586c                pwmICConfig
 *fill*         0x0800589e        0x2 
 .text.pwmCallback
                0x080058a0       0x5c obj/CUPDRONE/drv_pwm.o
 .text.pwmInConfig
                0x080058fc       0x64 obj/CUPDRONE/drv_pwm.o
 .text.pwmInit  0x08005960      0x16c obj/CUPDRONE/drv_pwm.o
                0x08005960                pwmInit
 .text.pwmWriteMotor
                0x08005acc       0x18 obj/CUPDRONE/drv_pwm.o
                0x08005acc                pwmWriteMotor
 .text.pwmWriteServo
                0x08005ae4       0x1c obj/CUPDRONE/drv_pwm.o
                0x08005ae4                pwmWriteServo
 .text.pwmRead  0x08005b00        0xc obj/CUPDRONE/drv_pwm.o
                0x08005b00                pwmRead
 .text.spiTransfer
                0x08005b0c       0x54 obj/CUPDRONE/drv_spi.o
                0x08005b0c                spiTransfer
 .text.spiInit  0x08005b60       0xf4 obj/CUPDRONE/drv_spi.o
                0x08005b60                spiInit
 .text.configureTimerChannelCallback
                0x08005c54       0x48 obj/CUPDRONE/drv_timer.o
                0x08005c54                configureTimerChannelCallback
 .text.configureTimerInputCaptureCompareChannel
                0x08005c9c       0x32 obj/CUPDRONE/drv_timer.o
                0x08005c9c                configureTimerInputCaptureCompareChannel
 .text.configureTimerCaptureCompareInterrupt
                0x08005cce       0x1c obj/CUPDRONE/drv_timer.o
                0x08005cce                configureTimerCaptureCompareInterrupt
 .text.timerNVICConfig
                0x08005cea       0x22 obj/CUPDRONE/drv_timer.o
                0x08005cea                timerNVICConfig
 .text.configTimeBase
                0x08005d0c       0x48 obj/CUPDRONE/drv_timer.o
                0x08005d0c                configTimeBase
 .text.timerInConfig
                0x08005d54       0x1c obj/CUPDRONE/drv_timer.o
                0x08005d54                timerInConfig
 .text.findTimerConfig
                0x08005d70       0x3c obj/CUPDRONE/drv_timer.o
                0x08005d70                findTimerConfig
 .text.timCCxHandler
                0x08005dac       0xa8 obj/CUPDRONE/drv_timer.o
 .text.TIM1_CC_IRQHandler
                0x08005e54        0xc obj/CUPDRONE/drv_timer.o
                0x08005e54                TIM1_CC_IRQHandler
 .text.TIM2_IRQHandler
                0x08005e60        0x8 obj/CUPDRONE/drv_timer.o
                0x08005e60                TIM2_IRQHandler
 .text.TIM3_IRQHandler
                0x08005e68        0xc obj/CUPDRONE/drv_timer.o
                0x08005e68                TIM3_IRQHandler
 .text.TIM4_IRQHandler
                0x08005e74        0xc obj/CUPDRONE/drv_timer.o
                0x08005e74                TIM4_IRQHandler
 .text.hexairbotReadRawRC
                0x08005e80        0xc obj/CUPDRONE/hexairbot.o
 .text.hexairbotInit
                0x08005e8c       0x18 obj/CUPDRONE/hexairbot.o
                0x08005e8c                hexairbotInit
 .text.hexairbotSetData
                0x08005ea4       0x1c obj/CUPDRONE/hexairbot.o
                0x08005ea4                hexairbotSetData
 .text.hexairbotFrameComplete
                0x08005ec0       0x18 obj/CUPDRONE/hexairbot.o
                0x08005ec0                hexairbotFrameComplete
 .text.Reset_Handler
                0x08005ed8       0xa0 obj/CUPDRONE/startup_stm32f10x_md_gcc.o
                0x08005ed8                Reset_Handler
 .text.Default_Handler
                0x08005f78        0x2 obj/CUPDRONE/startup_stm32f10x_md_gcc.o
                0x08005f78                EXTI2_IRQHandler
                0x08005f78                DebugMon_Handler
                0x08005f78                PVD_IRQHandler
                0x08005f78                NMI_Handler
                0x08005f78                EXTI3_IRQHandler
                0x08005f78                EXTI0_IRQHandler
                0x08005f78                UsageFault_Handler
                0x08005f78                ADC1_2_IRQHandler
                0x08005f78                SPI1_IRQHandler
                0x08005f78                TAMPER_IRQHandler
                0x08005f78                USART3_IRQHandler
                0x08005f78                RTC_IRQHandler
                0x08005f78                DMA1_Channel7_IRQHandler
                0x08005f78                CAN1_RX1_IRQHandler
                0x08005f78                DMA1_Channel6_IRQHandler
                0x08005f78                RCC_IRQHandler
                0x08005f78                TIM1_TRG_COM_IRQHandler
                0x08005f78                DMA1_Channel1_IRQHandler
                0x08005f78                Default_Handler
                0x08005f78                SPI2_IRQHandler
                0x08005f78                MemManage_Handler
                0x08005f78                DMA1_Channel5_IRQHandler
                0x08005f78                EXTI4_IRQHandler
                0x08005f78                USB_HP_CAN1_TX_IRQHandler
                0x08005f78                DMA1_Channel3_IRQHandler
                0x08005f78                TIM1_UP_IRQHandler
                0x08005f78                WWDG_IRQHandler
                0x08005f78                TIM1_BRK_IRQHandler
                0x08005f78                RTCAlarm_IRQHandler
                0x08005f78                DMA1_Channel2_IRQHandler
                0x08005f78                CAN1_SCE_IRQHandler
                0x08005f78                FLASH_IRQHandler
                0x08005f78                BusFault_Handler
 *fill*         0x08005f7a        0x2 
 .text.beep     0x08005f7c       0x70 obj/CUPDRONE/buzzer.o
 .text.beep_code
                0x08005fec       0xa8 obj/CUPDRONE/buzzer.o
 .text.buzzer   0x08006094      0x128 obj/CUPDRONE/buzzer.o
                0x08006094                buzzer
 .text.i2a      0x080061bc       0x28 obj/CUPDRONE/cli.o
 .text._atof    0x080061e4      0x124 obj/CUPDRONE/cli.o
 .text.cliPrint
                0x08006308       0x1c obj/CUPDRONE/cli.o
 .text.cliVersion
                0x08006324        0xc obj/CUPDRONE/cli.o
 .text.cliHelp  0x08006330       0x2c obj/CUPDRONE/cli.o
 .text.cliStatus
                0x0800635c       0xe4 obj/CUPDRONE/cli.o
 .text.cliCompare
                0x08006440       0x1a obj/CUPDRONE/cli.o
 *fill*         0x0800645a        0x2 
 .text.cliSave  0x0800645c       0x30 obj/CUPDRONE/cli.o
 .text.cliMap   0x0800648c       0xac obj/CUPDRONE/cli.o
 .text.cliGpsPassthrough
                0x08006538       0x20 obj/CUPDRONE/cli.o
 .text.cliFeature
                0x08006558       0xec obj/CUPDRONE/cli.o
 .text.cliExit  0x08006644       0x38 obj/CUPDRONE/cli.o
 .text.cliDefaults
                0x0800667c       0x2c obj/CUPDRONE/cli.o
 .text.cliMixer
                0x080066a8       0xa4 obj/CUPDRONE/cli.o
 .text.cliProfile
                0x0800674c       0x4c obj/CUPDRONE/cli.o
 .text.cliMotor
                0x08006798       0xa8 obj/CUPDRONE/cli.o
 .text.cliAux   0x08006840       0x64 obj/CUPDRONE/cli.o
 .text.itoa     0x080068a4       0x26 obj/CUPDRONE/cli.o
                0x080068a4                itoa
 *fill*         0x080068ca        0x2 
 .text.ftoa     0x080068cc       0xc8 obj/CUPDRONE/cli.o
 .text.cliPrintVar
                0x08006994       0xa0 obj/CUPDRONE/cli.o
 .text.cliSet   0x08006a34      0x16c obj/CUPDRONE/cli.o
 .text.cliDump  0x08006ba0      0x1b8 obj/CUPDRONE/cli.o
 .text.cliCMix  0x08006d58      0x258 obj/CUPDRONE/cli.o
 .text.cliProcess
                0x08006fb0      0x204 obj/CUPDRONE/cli.o
                0x08006fb0                cliProcess
 .text.validEEPROM
                0x080071b4       0x44 obj/CUPDRONE/config.o
 .text.parseRcChannels
                0x080071f8       0x30 obj/CUPDRONE/config.o
                0x080071f8                parseRcChannels
 .text.readEEPROM
                0x08007228      0x114 obj/CUPDRONE/config.o
                0x08007228                readEEPROM
 .text.writeEEPROM
                0x0800733c       0xd0 obj/CUPDRONE/config.o
                0x0800733c                writeEEPROM
 .text.sensors  0x0800740c       0x14 obj/CUPDRONE/config.o
                0x0800740c                sensors
 .text.sensorsSet
                0x08007420       0x10 obj/CUPDRONE/config.o
                0x08007420                sensorsSet
 .text.sensorsClear
                0x08007430       0x10 obj/CUPDRONE/config.o
                0x08007430                sensorsClear
 .text.sensorsMask
                0x08007440        0xc obj/CUPDRONE/config.o
                0x08007440                sensorsMask
 .text.feature  0x0800744c       0x14 obj/CUPDRONE/config.o
                0x0800744c                feature
 .text.featureSet
                0x08007460       0x10 obj/CUPDRONE/config.o
                0x08007460                featureSet
 .text.checkFirstTime
                0x08007470      0x314 obj/CUPDRONE/config.o
                0x08007470                checkFirstTime
 .text.featureClear
                0x08007784       0x10 obj/CUPDRONE/config.o
                0x08007784                featureClear
 .text.featureMask
                0x08007794        0xc obj/CUPDRONE/config.o
                0x08007794                featureMask
 .text.gpsSetState
                0x080077a0       0x18 obj/CUPDRONE/gps.o
 .text.GPS_calc_longitude_scaling
                0x080077b8       0x3c obj/CUPDRONE/gps.o
 .text.GPS_distance_cm_bearing.isra.3
                0x080077f4       0x84 obj/CUPDRONE/gps.o
 .text.get_I.isra.4
                0x08007878       0x50 obj/CUPDRONE/gps.o
 .text.grab_fields.constprop.7
                0x080078c8       0x40 obj/CUPDRONE/gps.o
 .text.gpsInitHardware
                0x08007908       0xd0 obj/CUPDRONE/gps.o
                0x08007908                gpsInitHardware
 .text.gpsThread
                0x080079d8       0x78 obj/CUPDRONE/gps.o
                0x080079d8                gpsThread
 .text.GPS_reset_home_position
                0x08007a50       0x48 obj/CUPDRONE/gps.o
                0x08007a50                GPS_reset_home_position
 .text.GPS_reset_nav
                0x08007a98       0x4c obj/CUPDRONE/gps.o
                0x08007a98                GPS_reset_nav
 .text.gpsSetPIDs
                0x08007ae4       0xa4 obj/CUPDRONE/gps.o
                0x08007ae4                gpsSetPIDs
 .text.gpsInit  0x08007b88       0x70 obj/CUPDRONE/gps.o
                0x08007b88                gpsInit
 .text.gpsSetPassthrough
                0x08007bf8       0x7c obj/CUPDRONE/gps.o
                0x08007bf8                gpsSetPassthrough
 .text.GPS_set_next_wp
                0x08007c74       0x8c obj/CUPDRONE/gps.o
                0x08007c74                GPS_set_next_wp
 .text.wrap_18000
                0x08007d00       0x24 obj/CUPDRONE/gps.o
                0x08007d00                wrap_18000
 .text.GPS_coord_to_degrees
                0x08007d24       0xa4 obj/CUPDRONE/gps.o
                0x08007d24                GPS_coord_to_degrees
 .text.gpsNewData
                0x08007dc8      0xba0 obj/CUPDRONE/gps.o
 .text.calculateHeading
                0x08008968       0xf8 obj/CUPDRONE/imu.o
 .text.imuInit  0x08008a60       0x58 obj/CUPDRONE/imu.o
                0x08008a60                imuInit
 .text.rotateV  0x08008ab8      0x15a obj/CUPDRONE/imu.o
                0x08008ab8                rotateV
 .text.applyDeadband
                0x08008c12       0x1e obj/CUPDRONE/imu.o
                0x08008c12                applyDeadband
 .text.acc_calc
                0x08008c30      0x190 obj/CUPDRONE/imu.o
                0x08008c30                acc_calc
 .text.computeIMU
                0x08008dc0      0x35c obj/CUPDRONE/imu.o
                0x08008dc0                computeIMU
 .text.accSum_reset
                0x0800911c       0x20 obj/CUPDRONE/imu.o
                0x0800911c                accSum_reset
 .text.getEstimatedAltitude
                0x0800913c      0x354 obj/CUPDRONE/imu.o
                0x0800913c                getEstimatedAltitude
 .text._putc    0x08009490        0xc obj/CUPDRONE/main.o
 .text.startup.main
                0x0800949c      0x2e8 obj/CUPDRONE/main.o
                0x0800949c                main
 .text.HardFault_Handler
                0x08009784       0x14 obj/CUPDRONE/main.o
                0x08009784                HardFault_Handler
 .text.servoMiddle
                0x08009798       0x28 obj/CUPDRONE/mixer.o
                0x08009798                servoMiddle
 .text.mixerResetMotors
                0x080097c0       0x30 obj/CUPDRONE/mixer.o
                0x080097c0                mixerResetMotors
 .text.mixerInit
                0x080097f0      0x124 obj/CUPDRONE/mixer.o
                0x080097f0                mixerInit
 .text.mixerLoadMix
                0x08009914       0x48 obj/CUPDRONE/mixer.o
                0x08009914                mixerLoadMix
 .text.writeServos
                0x0800995c       0xbc obj/CUPDRONE/mixer.o
                0x0800995c                writeServos
 .text.writeMotors
                0x08009a18       0x28 obj/CUPDRONE/mixer.o
                0x08009a18                writeMotors
 .text.writeAllMotors
                0x08009a40       0x28 obj/CUPDRONE/mixer.o
                0x08009a40                writeAllMotors
 .text.mixTable
                0x08009a68      0x620 obj/CUPDRONE/mixer.o
                0x08009a68                mixTable
 .text.pidMultiWii
                0x0800a088      0x21c obj/CUPDRONE/mw.o
 .text.pidRewrite
                0x0800a2a4      0x160 obj/CUPDRONE/mw.o
 .text.blinkLED
                0x0800a404       0x48 obj/CUPDRONE/mw.o
                0x0800a404                blinkLED
 *fill*         0x0800a44c        0x4 
 .text.annexCode
                0x0800a450      0x404 obj/CUPDRONE/mw.o
                0x0800a450                annexCode
 .text.pwmReadRawRC
                0x0800a854       0x28 obj/CUPDRONE/mw.o
                0x0800a854                pwmReadRawRC
 .text.computeRC
                0x0800a87c       0xbc obj/CUPDRONE/mw.o
                0x0800a87c                computeRC
 .text.mwArm    0x0800a938       0x40 obj/CUPDRONE/mw.o
                0x0800a938                mwArm
 .text.mwDisarm
                0x0800a978       0x10 obj/CUPDRONE/mw.o
                0x0800a978                mwDisarm
 .text.setPIDController
                0x0800a988       0x1c obj/CUPDRONE/mw.o
                0x0800a988                setPIDController
 .text.loop     0x0800a9a4      0xad8 obj/CUPDRONE/mw.o
                0x0800a9a4                loop
 .text.sensorsAutodetect
                0x0800b47c      0x1c0 obj/CUPDRONE/sensors.o
                0x0800b47c                sensorsAutodetect
 .text.batteryAdcToVoltage
                0x0800b63c       0x3c obj/CUPDRONE/sensors.o
                0x0800b63c                batteryAdcToVoltage
 .text.batteryInit
                0x0800b678       0x54 obj/CUPDRONE/sensors.o
                0x0800b678                batteryInit
 .text.ACC_getADC
                0x0800b6cc      0x1f0 obj/CUPDRONE/sensors.o
                0x0800b6cc                ACC_getADC
 .text.Baro_Common
                0x0800b8bc       0x44 obj/CUPDRONE/sensors.o
                0x0800b8bc                Baro_Common
 .text.Baro_update
                0x0800b900       0x70 obj/CUPDRONE/sensors.o
                0x0800b900                Baro_update
 .text.Gyro_getADC
                0x0800b970      0x180 obj/CUPDRONE/sensors.o
                0x0800b970                Gyro_getADC
 .text.Mag_init
                0x0800baf0       0x20 obj/CUPDRONE/sensors.o
                0x0800baf0                Mag_init
 .text.Mag_getADC
                0x0800bb10      0x130 obj/CUPDRONE/sensors.o
                0x0800bb10                Mag_getADC
 .text.Sonar_init
                0x0800bc40       0x1c obj/CUPDRONE/sensors.o
                0x0800bc40                Sonar_init
 .text.Sonar_update
                0x0800bc5c        0xc obj/CUPDRONE/sensors.o
                0x0800bc5c                Sonar_update
 .text.serialize32
                0x0800bc68       0x64 obj/CUPDRONE/serial.o
                0x0800bc68                serialize32
 .text.serialize16
                0x0800bccc       0x40 obj/CUPDRONE/serial.o
                0x0800bccc                serialize16
 .text.serialize8
                0x0800bd0c       0x20 obj/CUPDRONE/serial.o
                0x0800bd0c                serialize8
 .text.read8    0x0800bd2c       0x18 obj/CUPDRONE/serial.o
                0x0800bd2c                read8
 .text.read16   0x0800bd44       0x14 obj/CUPDRONE/serial.o
                0x0800bd44                read16
 .text.read32   0x0800bd58       0x12 obj/CUPDRONE/serial.o
                0x0800bd58                read32
 *fill*         0x0800bd6a        0x2 
 .text.headSerialResponse
                0x0800bd6c       0x40 obj/CUPDRONE/serial.o
                0x0800bd6c                headSerialResponse
 .text.headSerialReply
                0x0800bdac        0x8 obj/CUPDRONE/serial.o
                0x0800bdac                headSerialReply
 .text.headSerialError
                0x0800bdb4        0x8 obj/CUPDRONE/serial.o
                0x0800bdb4                headSerialError
 .text.tailSerialReply
                0x0800bdbc        0xc obj/CUPDRONE/serial.o
                0x0800bdbc                tailSerialReply
 .text.s_struct
                0x0800bdc8       0x1e obj/CUPDRONE/serial.o
                0x0800bdc8                s_struct
 .text.serializeNames
                0x0800bde6       0x12 obj/CUPDRONE/serial.o
                0x0800bde6                serializeNames
 .text.serializeBoxNamesReply
                0x0800bdf8       0x6c obj/CUPDRONE/serial.o
                0x0800bdf8                serializeBoxNamesReply
 .text.serialInit
                0x0800be64      0x118 obj/CUPDRONE/serial.o
                0x0800be64                serialInit
 .text.serialCom
                0x0800bf7c      0xd2c obj/CUPDRONE/serial.o
                0x0800bf7c                serialCom
 .text.sbusReadRawRC
                0x0800cca8       0x20 obj/CUPDRONE/sbus.o
 .text.sbusDataReceive
                0x0800ccc8       0x58 obj/CUPDRONE/sbus.o
 .text.sbusInit
                0x0800cd20       0x58 obj/CUPDRONE/sbus.o
                0x0800cd20                sbusInit
 .text.sbusFrameComplete
                0x0800cd78       0xb4 obj/CUPDRONE/sbus.o
                0x0800cd78                sbusFrameComplete
 .text.sumdReadRawRC
                0x0800ce2c       0x1c obj/CUPDRONE/sumd.o
 .text.sumdDataReceive
                0x0800ce48       0x70 obj/CUPDRONE/sumd.o
 .text.sumdInit
                0x0800ceb8       0x30 obj/CUPDRONE/sumd.o
                0x0800ceb8                sumdInit
 .text.sumdFrameComplete
                0x0800cee8       0x68 obj/CUPDRONE/sumd.o
                0x0800cee8                sumdFrameComplete
 .text.spektrumDataReceive
                0x0800cf50       0x60 obj/CUPDRONE/spektrum.o
 .text.spektrumReadRawRC
                0x0800cfb0       0x94 obj/CUPDRONE/spektrum.o
 .text.spektrumInit
                0x0800d044       0x68 obj/CUPDRONE/spektrum.o
                0x0800d044                spektrumInit
 .text.spektrumFrameComplete
                0x0800d0ac        0xc obj/CUPDRONE/spektrum.o
                0x0800d0ac                spektrumFrameComplete
 .text.sendDataHead
                0x0800d0b8       0x20 obj/CUPDRONE/telemetry.o
 .text.sendTelemetryTail
                0x0800d0d8       0x10 obj/CUPDRONE/telemetry.o
 .text.serializeFrsky
                0x0800d0e8       0x30 obj/CUPDRONE/telemetry.o
 .text.serialize16
                0x0800d118       0x16 obj/CUPDRONE/telemetry.o
 *fill*         0x0800d12e        0x2 
 .text.initTelemetry
                0x0800d130       0x30 obj/CUPDRONE/telemetry.o
                0x0800d130                initTelemetry
 .text.updateTelemetryState
                0x0800d160       0x5c obj/CUPDRONE/telemetry.o
                0x0800d160                updateTelemetryState
 .text.sendTelemetry
                0x0800d1bc      0x318 obj/CUPDRONE/telemetry.o
                0x0800d1bc                sendTelemetry
 .text.gpioInit
                0x0800d4d4       0x76 obj/CUPDRONE/drv_gpio.o
                0x0800d4d4                gpioInit
 .text.gpioExtiLineConfig
                0x0800d54a       0x2a obj/CUPDRONE/drv_gpio.o
                0x0800d54a                gpioExtiLineConfig
 .text.i2c_ev_handler
                0x0800d574      0x2f4 obj/CUPDRONE/drv_i2c.o
 .text.I2C1_EV_IRQHandler
                0x0800d868        0x4 obj/CUPDRONE/drv_i2c.o
                0x0800d868                I2C1_EV_IRQHandler
 .text.I2C2_EV_IRQHandler
                0x0800d86c        0x4 obj/CUPDRONE/drv_i2c.o
                0x0800d86c                I2C2_EV_IRQHandler
 .text.i2cInit  0x0800d870      0x140 obj/CUPDRONE/drv_i2c.o
                0x0800d870                i2cInit
 .text.i2c_er_handler
                0x0800d9b0       0x98 obj/CUPDRONE/drv_i2c.o
 .text.I2C2_ER_IRQHandler
                0x0800da48        0x4 obj/CUPDRONE/drv_i2c.o
                0x0800da48                I2C2_ER_IRQHandler
 .text.I2C1_ER_IRQHandler
                0x0800da4c        0x4 obj/CUPDRONE/drv_i2c.o
                0x0800da4c                I2C1_ER_IRQHandler
 .text.i2cWriteBuffer
                0x0800da50       0xb0 obj/CUPDRONE/drv_i2c.o
                0x0800da50                i2cWriteBuffer
 .text.i2cWrite
                0x0800db00       0x14 obj/CUPDRONE/drv_i2c.o
                0x0800db00                i2cWrite
 .text.i2cRead  0x0800db14       0xb0 obj/CUPDRONE/drv_i2c.o
                0x0800db14                i2cRead
 .text.i2cGetErrorCounter
                0x0800dbc4        0xc obj/CUPDRONE/drv_i2c.o
                0x0800dbc4                i2cGetErrorCounter
 .text.SysTick_Handler
                0x0800dbd0       0x1c obj/CUPDRONE/drv_system.o
                0x0800dbd0                SysTick_Handler
 .text.micros   0x0800dbec       0x34 obj/CUPDRONE/drv_system.o
                0x0800dbec                micros
 .text.millis   0x0800dc20        0xc obj/CUPDRONE/drv_system.o
                0x0800dc20                millis
 .text.delayMicroseconds
                0x0800dc2c       0x16 obj/CUPDRONE/drv_system.o
                0x0800dc2c                delayMicroseconds
 .text.delay    0x0800dc42       0x14 obj/CUPDRONE/drv_system.o
                0x0800dc42                delay
 *fill*         0x0800dc56        0x2 
 .text.systemInit
                0x0800dc58      0x120 obj/CUPDRONE/drv_system.o
                0x0800dc58                systemInit
 .text.failureMode
                0x0800dd78       0x38 obj/CUPDRONE/drv_system.o
                0x0800dd78                failureMode
 .text.systemReset
                0x0800ddb0       0x20 obj/CUPDRONE/drv_system.o
                0x0800ddb0                systemReset
 .text.systemBeep
                0x0800ddd0        0x2 obj/CUPDRONE/drv_system.o
                0x0800ddd0                systemBeep
 *fill*         0x0800ddd2        0x2 
 .text.serialWrite
                0x0800ddd4       0x1c obj/CUPDRONE/drv_serial.o
                0x0800ddd4                serialWrite
 .text.serialPrint
                0x0800ddf0       0x16 obj/CUPDRONE/drv_serial.o
                0x0800ddf0                serialPrint
 *fill*         0x0800de06        0x2 
 .text.serialTotalBytesWaiting
                0x0800de08       0x1c obj/CUPDRONE/drv_serial.o
                0x0800de08                serialTotalBytesWaiting
 .text.serialRead
                0x0800de24       0x1c obj/CUPDRONE/drv_serial.o
                0x0800de24                serialRead
 .text.serialSetBaudRate
                0x0800de40        0x6 obj/CUPDRONE/drv_serial.o
                0x0800de40                serialSetBaudRate
 .text.isSerialTransmitBufferEmpty
                0x0800de46        0x6 obj/CUPDRONE/drv_serial.o
                0x0800de46                isSerialTransmitBufferEmpty
 .text.softSerialTotalBytesWaiting
                0x0800de4c       0x1a obj/CUPDRONE/drv_softserial.o
                0x0800de4c                softSerialTotalBytesWaiting
 .text.softSerialWriteByte
                0x0800de66       0x18 obj/CUPDRONE/drv_softserial.o
                0x0800de66                softSerialWriteByte
 .text.softSerialSetBaudRate
                0x0800de7e        0x2 obj/CUPDRONE/drv_softserial.o
                0x0800de7e                softSerialSetBaudRate
 .text.isSoftSerialTransmitBufferEmpty
                0x0800de80        0xc obj/CUPDRONE/drv_softserial.o
                0x0800de80                isSoftSerialTransmitBufferEmpty
 .text.softSerialReadByte
                0x0800de8c       0x22 obj/CUPDRONE/drv_softserial.o
                0x0800de8c                softSerialReadByte
 .text.readRxSignal
                0x0800deae       0x20 obj/CUPDRONE/drv_softserial.o
                0x0800deae                readRxSignal
 .text.setTxSignal
                0x0800dece       0x2a obj/CUPDRONE/drv_softserial.o
                0x0800dece                setTxSignal
 .text.serialInputPortConfig
                0x0800def8       0x24 obj/CUPDRONE/drv_softserial.o
                0x0800def8                serialInputPortConfig
 .text.serialTimerConfig
                0x0800df1c       0x2c obj/CUPDRONE/drv_softserial.o
                0x0800df1c                serialTimerConfig
 .text.serialOutputPortConfig
                0x0800df48       0x24 obj/CUPDRONE/drv_softserial.o
                0x0800df48                serialOutputPortConfig
 .text.setupSoftSerial1
                0x0800df6c       0x8c obj/CUPDRONE/drv_softserial.o
                0x0800df6c                setupSoftSerial1
 .text.updateBufferIndex
                0x0800dff8       0x12 obj/CUPDRONE/drv_softserial.o
                0x0800dff8                updateBufferIndex
 .text.searchForStartBit
                0x0800e00a       0x30 obj/CUPDRONE/drv_softserial.o
                0x0800e00a                searchForStartBit
 .text.searchForStopBit
                0x0800e03a       0x36 obj/CUPDRONE/drv_softserial.o
                0x0800e03a                searchForStopBit
 .text.readDataBit
                0x0800e070       0x40 obj/CUPDRONE/drv_softserial.o
                0x0800e070                readDataBit
 .text.processRxState
                0x0800e0b0       0x28 obj/CUPDRONE/drv_softserial.o
                0x0800e0b0                processRxState
 .text.processTxState
                0x0800e0d8       0x78 obj/CUPDRONE/drv_softserial.o
                0x0800e0d8                processTxState
 .text.onSerialTimer
                0x0800e150       0x20 obj/CUPDRONE/drv_softserial.o
                0x0800e150                onSerialTimer
 .text.uartTotalBytesWaiting
                0x0800e170       0x18 obj/CUPDRONE/drv_uart.o
                0x0800e170                uartTotalBytesWaiting
 .text.isUartTransmitBufferEmpty
                0x0800e188       0x16 obj/CUPDRONE/drv_uart.o
                0x0800e188                isUartTransmitBufferEmpty
 .text.uartSetBaudRate
                0x0800e19e       0x4e obj/CUPDRONE/drv_uart.o
                0x0800e19e                uartSetBaudRate
 .text.uartStartTxDMA
                0x0800e1ec       0x34 obj/CUPDRONE/drv_uart.o
 .text.uartRead
                0x0800e220       0x32 obj/CUPDRONE/drv_uart.o
                0x0800e220                uartRead
 .text.uartWrite
                0x0800e252       0x3a obj/CUPDRONE/drv_uart.o
                0x0800e252                uartWrite
 .text.serialUSART1
                0x0800e28c       0xa4 obj/CUPDRONE/drv_uart.o
                0x0800e28c                serialUSART1
 .text.serialUSART2
                0x0800e330       0xa4 obj/CUPDRONE/drv_uart.o
                0x0800e330                serialUSART2
 .text.uartOpen
                0x0800e3d4      0x178 obj/CUPDRONE/drv_uart.o
                0x0800e3d4                uartOpen
 .text.DMA1_Channel4_IRQHandler
                0x0800e54c       0x34 obj/CUPDRONE/drv_uart.o
                0x0800e54c                DMA1_Channel4_IRQHandler
 .text.USART1_IRQHandler
                0x0800e580       0x38 obj/CUPDRONE/drv_uart.o
                0x0800e580                USART1_IRQHandler
 .text.USART2_IRQHandler
                0x0800e5b8       0x70 obj/CUPDRONE/drv_uart.o
                0x0800e5b8                USART2_IRQHandler
 .text.Hw_VCom_Init
                0x0800e628       0x24 obj/CUPDRONE/drv_vcom.o
                0x0800e628                Hw_VCom_Init
 .text.Hw_VCom_Getch
                0x0800e64c       0x26 obj/CUPDRONE/drv_vcom.o
                0x0800e64c                Hw_VCom_Getch
 .text.Hw_VCom_IsReceived
                0x0800e672       0x10 obj/CUPDRONE/drv_vcom.o
                0x0800e672                Hw_VCom_IsReceived
 *fill*         0x0800e682        0x2 
 .text.Hw_VCom_Putch
                0x0800e684       0x14 obj/CUPDRONE/drv_vcom.o
                0x0800e684                Hw_VCom_Putch
 .text.usb_putc
                0x0800e698        0x6 obj/CUPDRONE/drv_vcom.o
 *fill*         0x0800e69e        0x2 
 .text.Hw_VCom_Printf
                0x0800e6a0       0x24 obj/CUPDRONE/drv_vcom.o
                0x0800e6a0                Hw_VCom_Printf
 .text.Hw_VCom_Q_Init
                0x0800e6c4       0x14 obj/CUPDRONE/drv_vcom_q.o
                0x0800e6c4                Hw_VCom_Q_Init
 .text.HW_VCOM_Q_SIZE
                0x0800e6d8       0x38 obj/CUPDRONE/drv_vcom_q.o
                0x0800e6d8                HW_VCOM_Q_SIZE
 .text.HW_VCOM_Q_VAILD
                0x0800e710        0x4 obj/CUPDRONE/drv_vcom_q.o
                0x0800e710                HW_VCOM_Q_VAILD
 .text.Hw_VCom_Q_Push
                0x0800e714       0x5c obj/CUPDRONE/drv_vcom_q.o
                0x0800e714                Hw_VCom_Q_Push
 .text.Hw_VCom_Q_Pop
                0x0800e770       0x54 obj/CUPDRONE/drv_vcom_q.o
                0x0800e770                Hw_VCom_Q_Pop
 .text.uli2a    0x0800e7c4       0x4c obj/CUPDRONE/printf.o
 .text.ui2a     0x0800e810       0x4c obj/CUPDRONE/printf.o
 .text.putchw   0x0800e85c       0x48 obj/CUPDRONE/printf.o
 .text.tfp_format
                0x0800e8a4      0x1a6 obj/CUPDRONE/printf.o
                0x0800e8a4                tfp_format
 *fill*         0x0800ea4a        0x2 
 .text.init_printf
                0x0800ea4c       0x14 obj/CUPDRONE/printf.o
                0x0800ea4c                init_printf
 .text.tfp_printf
                0x0800ea60       0x3c obj/CUPDRONE/printf.o
                0x0800ea60                tfp_printf
 .text.constrain
                0x0800ea9c       0x10 obj/CUPDRONE/utils.o
                0x0800ea9c                constrain
 *fill*         0x0800eaac        0x4 
 .text.initBoardAlignment
                0x0800eab0      0x168 obj/CUPDRONE/utils.o
                0x0800eab0                initBoardAlignment
 .text.alignBoard
                0x0800ec18       0xc4 obj/CUPDRONE/utils.o
                0x0800ec18                alignBoard
 .text.alignSensors
                0x0800ecdc       0x7c obj/CUPDRONE/utils.o
                0x0800ecdc                alignSensors
 .text.SystemInit
                0x0800ed58       0x4c obj/CUPDRONE/system_stm32f10x.o
                0x0800ed58                SystemInit
 .text.SetSysClock
                0x0800eda4       0x98 obj/CUPDRONE/system_stm32f10x.o
                0x0800eda4                SetSysClock
 .text.NVIC_PriorityGroupConfig
                0x0800ee3c       0x14 obj/CUPDRONE/misc.o
                0x0800ee3c                NVIC_PriorityGroupConfig
 .text.NVIC_Init
                0x0800ee50       0x6c obj/CUPDRONE/misc.o
                0x0800ee50                NVIC_Init
 .text.ADC_Init
                0x0800eebc       0x48 obj/CUPDRONE/stm32f10x_adc.o
                0x0800eebc                ADC_Init
 .text.ADC_Cmd  0x0800ef04       0x12 obj/CUPDRONE/stm32f10x_adc.o
                0x0800ef04                ADC_Cmd
 .text.ADC_DMACmd
                0x0800ef16       0x12 obj/CUPDRONE/stm32f10x_adc.o
                0x0800ef16                ADC_DMACmd
 .text.ADC_ResetCalibration
                0x0800ef28        0xa obj/CUPDRONE/stm32f10x_adc.o
                0x0800ef28                ADC_ResetCalibration
 .text.ADC_GetResetCalibrationStatus
                0x0800ef32        0x8 obj/CUPDRONE/stm32f10x_adc.o
                0x0800ef32                ADC_GetResetCalibrationStatus
 .text.ADC_StartCalibration
                0x0800ef3a        0xa obj/CUPDRONE/stm32f10x_adc.o
                0x0800ef3a                ADC_StartCalibration
 .text.ADC_GetCalibrationStatus
                0x0800ef44        0x8 obj/CUPDRONE/stm32f10x_adc.o
                0x0800ef44                ADC_GetCalibrationStatus
 .text.ADC_SoftwareStartConvCmd
                0x0800ef4c       0x12 obj/CUPDRONE/stm32f10x_adc.o
                0x0800ef4c                ADC_SoftwareStartConvCmd
 .text.ADC_RegularChannelConfig
                0x0800ef5e       0x8e obj/CUPDRONE/stm32f10x_adc.o
                0x0800ef5e                ADC_RegularChannelConfig
 .text.DMA_DeInit
                0x0800efec       0xf0 obj/CUPDRONE/stm32f10x_dma.o
                0x0800efec                DMA_DeInit
 .text.DMA_Init
                0x0800f0dc       0x3c obj/CUPDRONE/stm32f10x_dma.o
                0x0800f0dc                DMA_Init
 .text.DMA_StructInit
                0x0800f118       0x1a obj/CUPDRONE/stm32f10x_dma.o
                0x0800f118                DMA_StructInit
 .text.DMA_Cmd  0x0800f132       0x16 obj/CUPDRONE/stm32f10x_dma.o
                0x0800f132                DMA_Cmd
 .text.DMA_ITConfig
                0x0800f148       0x10 obj/CUPDRONE/stm32f10x_dma.o
                0x0800f148                DMA_ITConfig
 .text.DMA_SetCurrDataCounter
                0x0800f158        0x4 obj/CUPDRONE/stm32f10x_dma.o
                0x0800f158                DMA_SetCurrDataCounter
 .text.DMA_GetCurrDataCounter
                0x0800f15c        0x6 obj/CUPDRONE/stm32f10x_dma.o
                0x0800f15c                DMA_GetCurrDataCounter
 *fill*         0x0800f162        0x2 
 .text.DMA_ClearITPendingBit
                0x0800f164       0x14 obj/CUPDRONE/stm32f10x_dma.o
                0x0800f164                DMA_ClearITPendingBit
 .text.EXTI_Init
                0x0800f178       0x74 obj/CUPDRONE/stm32f10x_exti.o
                0x0800f178                EXTI_Init
 .text.EXTI_GetITStatus
                0x0800f1ec       0x1c obj/CUPDRONE/stm32f10x_exti.o
                0x0800f1ec                EXTI_GetITStatus
 .text.EXTI_ClearITPendingBit
                0x0800f208        0xc obj/CUPDRONE/stm32f10x_exti.o
                0x0800f208                EXTI_ClearITPendingBit
 .text.FLASH_SetLatency
                0x0800f214       0x14 obj/CUPDRONE/stm32f10x_flash.o
                0x0800f214                FLASH_SetLatency
 .text.FLASH_PrefetchBufferCmd
                0x0800f228       0x18 obj/CUPDRONE/stm32f10x_flash.o
                0x0800f228                FLASH_PrefetchBufferCmd
 .text.FLASH_UnlockBank1
                0x0800f240       0x18 obj/CUPDRONE/stm32f10x_flash.o
                0x0800f240                FLASH_UnlockBank1
 .text.FLASH_Unlock
                0x0800f258        0x4 obj/CUPDRONE/stm32f10x_flash.o
                0x0800f258                FLASH_Unlock
 .text.FLASH_LockBank1
                0x0800f25c       0x10 obj/CUPDRONE/stm32f10x_flash.o
                0x0800f25c                FLASH_LockBank1
 .text.FLASH_Lock
                0x0800f26c        0x4 obj/CUPDRONE/stm32f10x_flash.o
                0x0800f26c                FLASH_Lock
 .text.FLASH_ClearFlag
                0x0800f270        0xc obj/CUPDRONE/stm32f10x_flash.o
                0x0800f270                FLASH_ClearFlag
 .text.FLASH_GetBank1Status
                0x0800f27c       0x28 obj/CUPDRONE/stm32f10x_flash.o
                0x0800f27c                FLASH_GetBank1Status
 .text.FLASH_WaitForLastBank1Operation
                0x0800f2a4       0x22 obj/CUPDRONE/stm32f10x_flash.o
                0x0800f2a4                FLASH_WaitForLastBank1Operation
 *fill*         0x0800f2c6        0x2 
 .text.FLASH_ProgramWord
                0x0800f2c8       0x54 obj/CUPDRONE/stm32f10x_flash.o
                0x0800f2c8                FLASH_ProgramWord
 .text.FLASH_ErasePage
                0x0800f31c       0x3c obj/CUPDRONE/stm32f10x_flash.o
                0x0800f31c                FLASH_ErasePage
 .text.GPIO_Init
                0x0800f358       0xa4 obj/CUPDRONE/stm32f10x_gpio.o
                0x0800f358                GPIO_Init
 .text.GPIO_SetBits
                0x0800f3fc        0x4 obj/CUPDRONE/stm32f10x_gpio.o
                0x0800f3fc                GPIO_SetBits
 .text.GPIO_ResetBits
                0x0800f400        0x4 obj/CUPDRONE/stm32f10x_gpio.o
                0x0800f400                GPIO_ResetBits
 .text.I2C_DeInit
                0x0800f404       0x34 obj/CUPDRONE/stm32f10x_i2c.o
                0x0800f404                I2C_DeInit
 .text.I2C_Init
                0x0800f438       0xd4 obj/CUPDRONE/stm32f10x_i2c.o
                0x0800f438                I2C_Init
 .text.I2C_StructInit
                0x0800f50c       0x1c obj/CUPDRONE/stm32f10x_i2c.o
                0x0800f50c                I2C_StructInit
 .text.I2C_Cmd  0x0800f528       0x18 obj/CUPDRONE/stm32f10x_i2c.o
                0x0800f528                I2C_Cmd
 .text.I2C_GenerateSTART
                0x0800f540       0x18 obj/CUPDRONE/stm32f10x_i2c.o
                0x0800f540                I2C_GenerateSTART
 .text.I2C_GenerateSTOP
                0x0800f558       0x18 obj/CUPDRONE/stm32f10x_i2c.o
                0x0800f558                I2C_GenerateSTOP
 .text.I2C_AcknowledgeConfig
                0x0800f570       0x18 obj/CUPDRONE/stm32f10x_i2c.o
                0x0800f570                I2C_AcknowledgeConfig
 .text.I2C_ITConfig
                0x0800f588       0x12 obj/CUPDRONE/stm32f10x_i2c.o
                0x0800f588                I2C_ITConfig
 .text.I2C_SendData
                0x0800f59a        0x4 obj/CUPDRONE/stm32f10x_i2c.o
                0x0800f59a                I2C_SendData
 .text.I2C_ReceiveData
                0x0800f59e        0x6 obj/CUPDRONE/stm32f10x_i2c.o
                0x0800f59e                I2C_ReceiveData
 .text.I2C_Send7bitAddress
                0x0800f5a4       0x12 obj/CUPDRONE/stm32f10x_i2c.o
                0x0800f5a4                I2C_Send7bitAddress
 *fill*         0x0800f5b6        0x2 
 .text.RCC_DeInit
                0x0800f5b8       0x40 obj/CUPDRONE/stm32f10x_rcc.o
                0x0800f5b8                RCC_DeInit
 .text.RCC_HSEConfig
                0x0800f5f8       0x38 obj/CUPDRONE/stm32f10x_rcc.o
                0x0800f5f8                RCC_HSEConfig
 .text.RCC_PLLConfig
                0x0800f630       0x14 obj/CUPDRONE/stm32f10x_rcc.o
                0x0800f630                RCC_PLLConfig
 .text.RCC_PLLCmd
                0x0800f644        0xc obj/CUPDRONE/stm32f10x_rcc.o
                0x0800f644                RCC_PLLCmd
 .text.RCC_SYSCLKConfig
                0x0800f650       0x14 obj/CUPDRONE/stm32f10x_rcc.o
                0x0800f650                RCC_SYSCLKConfig
 .text.RCC_GetSYSCLKSource
                0x0800f664       0x10 obj/CUPDRONE/stm32f10x_rcc.o
                0x0800f664                RCC_GetSYSCLKSource
 .text.RCC_HCLKConfig
                0x0800f674       0x14 obj/CUPDRONE/stm32f10x_rcc.o
                0x0800f674                RCC_HCLKConfig
 .text.RCC_PCLK1Config
                0x0800f688       0x14 obj/CUPDRONE/stm32f10x_rcc.o
                0x0800f688                RCC_PCLK1Config
 .text.RCC_PCLK2Config
                0x0800f69c       0x14 obj/CUPDRONE/stm32f10x_rcc.o
                0x0800f69c                RCC_PCLK2Config
 .text.RCC_USBCLKConfig
                0x0800f6b0        0xc obj/CUPDRONE/stm32f10x_rcc.o
                0x0800f6b0                RCC_USBCLKConfig
 .text.RCC_GetClocksFreq
                0x0800f6bc       0x98 obj/CUPDRONE/stm32f10x_rcc.o
                0x0800f6bc                RCC_GetClocksFreq
 .text.RCC_AHBPeriphClockCmd
                0x0800f754       0x18 obj/CUPDRONE/stm32f10x_rcc.o
                0x0800f754                RCC_AHBPeriphClockCmd
 .text.RCC_APB2PeriphClockCmd
                0x0800f76c       0x18 obj/CUPDRONE/stm32f10x_rcc.o
                0x0800f76c                RCC_APB2PeriphClockCmd
 .text.RCC_APB1PeriphClockCmd
                0x0800f784       0x18 obj/CUPDRONE/stm32f10x_rcc.o
                0x0800f784                RCC_APB1PeriphClockCmd
 .text.RCC_APB2PeriphResetCmd
                0x0800f79c       0x18 obj/CUPDRONE/stm32f10x_rcc.o
                0x0800f79c                RCC_APB2PeriphResetCmd
 .text.RCC_APB1PeriphResetCmd
                0x0800f7b4       0x18 obj/CUPDRONE/stm32f10x_rcc.o
                0x0800f7b4                RCC_APB1PeriphResetCmd
 .text.RCC_GetFlagStatus
                0x0800f7cc       0x28 obj/CUPDRONE/stm32f10x_rcc.o
                0x0800f7cc                RCC_GetFlagStatus
 .text.RCC_WaitForHSEStartUp
                0x0800f7f4       0x30 obj/CUPDRONE/stm32f10x_rcc.o
                0x0800f7f4                RCC_WaitForHSEStartUp
 .text.RCC_ClearFlag
                0x0800f824       0x10 obj/CUPDRONE/stm32f10x_rcc.o
                0x0800f824                RCC_ClearFlag
 .text.SPI_I2S_DeInit
                0x0800f834       0x64 obj/CUPDRONE/stm32f10x_spi.o
                0x0800f834                SPI_I2S_DeInit
 .text.SPI_Init
                0x0800f898       0x3e obj/CUPDRONE/stm32f10x_spi.o
                0x0800f898                SPI_Init
 .text.SPI_Cmd  0x0800f8d6       0x18 obj/CUPDRONE/stm32f10x_spi.o
                0x0800f8d6                SPI_Cmd
 .text.SPI_I2S_SendData
                0x0800f8ee        0x4 obj/CUPDRONE/stm32f10x_spi.o
                0x0800f8ee                SPI_I2S_SendData
 .text.SPI_I2S_ReceiveData
                0x0800f8f2        0x6 obj/CUPDRONE/stm32f10x_spi.o
                0x0800f8f2                SPI_I2S_ReceiveData
 .text.SPI_I2S_GetFlagStatus
                0x0800f8f8        0xc obj/CUPDRONE/stm32f10x_spi.o
                0x0800f8f8                SPI_I2S_GetFlagStatus
 .text.TI1_Config
                0x0800f904       0x68 obj/CUPDRONE/stm32f10x_tim.o
 .text.TI2_Config
                0x0800f96c       0x78 obj/CUPDRONE/stm32f10x_tim.o
 .text.TIM_TimeBaseInit
                0x0800f9e4       0x94 obj/CUPDRONE/stm32f10x_tim.o
                0x0800f9e4                TIM_TimeBaseInit
 .text.TIM_OC1Init
                0x0800fa78       0x88 obj/CUPDRONE/stm32f10x_tim.o
                0x0800fa78                TIM_OC1Init
 .text.TIM_OC2Init
                0x0800fb00       0x88 obj/CUPDRONE/stm32f10x_tim.o
                0x0800fb00                TIM_OC2Init
 .text.TIM_OC3Init
                0x0800fb88       0x84 obj/CUPDRONE/stm32f10x_tim.o
                0x0800fb88                TIM_OC3Init
 .text.TIM_OC4Init
                0x0800fc0c       0x68 obj/CUPDRONE/stm32f10x_tim.o
                0x0800fc0c                TIM_OC4Init
 .text.TIM_TimeBaseStructInit
                0x0800fc74       0x12 obj/CUPDRONE/stm32f10x_tim.o
                0x0800fc74                TIM_TimeBaseStructInit
 .text.TIM_OCStructInit
                0x0800fc86       0x14 obj/CUPDRONE/stm32f10x_tim.o
                0x0800fc86                TIM_OCStructInit
 .text.TIM_ICStructInit
                0x0800fc9a       0x10 obj/CUPDRONE/stm32f10x_tim.o
                0x0800fc9a                TIM_ICStructInit
 .text.TIM_Cmd  0x0800fcaa       0x18 obj/CUPDRONE/stm32f10x_tim.o
                0x0800fcaa                TIM_Cmd
 .text.TIM_CtrlPWMOutputs
                0x0800fcc2       0x1c obj/CUPDRONE/stm32f10x_tim.o
                0x0800fcc2                TIM_CtrlPWMOutputs
 .text.TIM_DMACmd
                0x0800fcde       0x12 obj/CUPDRONE/stm32f10x_tim.o
                0x0800fcde                TIM_DMACmd
 .text.TIM_ITConfig
                0x0800fcf0        0x4 obj/CUPDRONE/stm32f10x_tim.o
                0x0800fcf0                TIM_ITConfig
 .text.TIM_OC1PreloadConfig
                0x0800fcf4       0x10 obj/CUPDRONE/stm32f10x_tim.o
                0x0800fcf4                TIM_OC1PreloadConfig
 .text.TIM_OC2PreloadConfig
                0x0800fd04       0x14 obj/CUPDRONE/stm32f10x_tim.o
                0x0800fd04                TIM_OC2PreloadConfig
 .text.TIM_OC3PreloadConfig
                0x0800fd18       0x10 obj/CUPDRONE/stm32f10x_tim.o
                0x0800fd18                TIM_OC3PreloadConfig
 .text.TIM_OC4PreloadConfig
                0x0800fd28       0x14 obj/CUPDRONE/stm32f10x_tim.o
                0x0800fd28                TIM_OC4PreloadConfig
 .text.TIM_SetIC1Prescaler
                0x0800fd3c       0x16 obj/CUPDRONE/stm32f10x_tim.o
                0x0800fd3c                TIM_SetIC1Prescaler
 .text.TIM_SetIC2Prescaler
                0x0800fd52       0x1a obj/CUPDRONE/stm32f10x_tim.o
                0x0800fd52                TIM_SetIC2Prescaler
 .text.TIM_SetIC3Prescaler
                0x0800fd6c       0x16 obj/CUPDRONE/stm32f10x_tim.o
                0x0800fd6c                TIM_SetIC3Prescaler
 .text.TIM_SetIC4Prescaler
                0x0800fd82       0x1a obj/CUPDRONE/stm32f10x_tim.o
                0x0800fd82                TIM_SetIC4Prescaler
 .text.TIM_ICInit
                0x0800fd9c      0x130 obj/CUPDRONE/stm32f10x_tim.o
                0x0800fd9c                TIM_ICInit
 .text.TIM_GetCapture1
                0x0800fecc        0x6 obj/CUPDRONE/stm32f10x_tim.o
                0x0800fecc                TIM_GetCapture1
 .text.TIM_GetCapture2
                0x0800fed2        0x6 obj/CUPDRONE/stm32f10x_tim.o
                0x0800fed2                TIM_GetCapture2
 .text.TIM_GetCapture3
                0x0800fed8        0x6 obj/CUPDRONE/stm32f10x_tim.o
                0x0800fed8                TIM_GetCapture3
 .text.TIM_GetCapture4
                0x0800fede        0x8 obj/CUPDRONE/stm32f10x_tim.o
                0x0800fede                TIM_GetCapture4
 .text.TIM_GetITStatus
                0x0800fee6       0x16 obj/CUPDRONE/stm32f10x_tim.o
                0x0800fee6                TIM_GetITStatus
 .text.TIM_ClearITPendingBit
                0x0800fefc        0x8 obj/CUPDRONE/stm32f10x_tim.o
                0x0800fefc                TIM_ClearITPendingBit
 .text.USART_Init
                0x0800ff04       0xa8 obj/CUPDRONE/stm32f10x_usart.o
                0x0800ff04                USART_Init
 .text.USART_Cmd
                0x0800ffac       0x18 obj/CUPDRONE/stm32f10x_usart.o
                0x0800ffac                USART_Cmd
 .text.USART_ITConfig
                0x0800ffc4       0x30 obj/CUPDRONE/stm32f10x_usart.o
                0x0800ffc4                USART_ITConfig
 .text.USART_DMACmd
                0x0800fff4       0x12 obj/CUPDRONE/stm32f10x_usart.o
                0x0800fff4                USART_DMACmd
 .text.vListInitialise
                0x08010006       0x16 obj/CUPDRONE/list.o
                0x08010006                vListInitialise
 .text.vListInitialiseItem
                0x0801001c        0x6 obj/CUPDRONE/list.o
                0x0801001c                vListInitialiseItem
 .text.vListInsertEnd
                0x08010022       0x18 obj/CUPDRONE/list.o
                0x08010022                vListInsertEnd
 .text.vListInsert
                0x0801003a       0x30 obj/CUPDRONE/list.o
                0x0801003a                vListInsert
 .text.uxListRemove
                0x0801006a       0x20 obj/CUPDRONE/list.o
                0x0801006a                uxListRemove
 .text.prvCopyDataToQueue
                0x0801008a       0x66 obj/CUPDRONE/queue.o
 .text.prvCopyDataFromQueue
                0x080100f0       0x26 obj/CUPDRONE/queue.o
 .text.prvUnlockQueue
                0x08010116       0x68 obj/CUPDRONE/queue.o
 .text.xQueueGenericReset
                0x0801017e       0x62 obj/CUPDRONE/queue.o
                0x0801017e                xQueueGenericReset
 .text.xQueueGenericCreate
                0x080101e0       0x42 obj/CUPDRONE/queue.o
                0x080101e0                xQueueGenericCreate
 .text.xQueueGenericSend
                0x08010222      0x100 obj/CUPDRONE/queue.o
                0x08010222                xQueueGenericSend
 .text.xQueueCreateMutex
                0x08010322       0x50 obj/CUPDRONE/queue.o
                0x08010322                xQueueCreateMutex
 .text.xQueueGenericSendFromISR
                0x08010372       0x8a obj/CUPDRONE/queue.o
                0x08010372                xQueueGenericSendFromISR
 .text.xQueueGenericReceive
                0x080103fc      0x122 obj/CUPDRONE/queue.o
                0x080103fc                xQueueGenericReceive
 .text.vQueueWaitForMessageRestricted
                0x0801051e       0x3a obj/CUPDRONE/queue.o
                0x0801051e                vQueueWaitForMessageRestricted
 .text.prvAddCurrentTaskToDelayedList
                0x08010558       0x50 obj/CUPDRONE/tasks.o
 .text.xTaskGenericCreate
                0x080105a8      0x1a8 obj/CUPDRONE/tasks.o
                0x080105a8                xTaskGenericCreate
 .text.vTaskStartScheduler
                0x08010750       0x5c obj/CUPDRONE/tasks.o
                0x08010750                vTaskStartScheduler
 .text.vTaskSuspendAll
                0x080107ac       0x10 obj/CUPDRONE/tasks.o
                0x080107ac                vTaskSuspendAll
 .text.xTaskGetTickCount
                0x080107bc       0x18 obj/CUPDRONE/tasks.o
                0x080107bc                xTaskGetTickCount
 .text.xTaskIncrementTick
                0x080107d4      0x130 obj/CUPDRONE/tasks.o
                0x080107d4                xTaskIncrementTick
 .text.xTaskResumeAll
                0x08010904       0xcc obj/CUPDRONE/tasks.o
                0x08010904                xTaskResumeAll
 .text.vTaskDelay
                0x080109d0       0x38 obj/CUPDRONE/tasks.o
                0x080109d0                vTaskDelay
 .text.prvIdleTask
                0x08010a08       0x68 obj/CUPDRONE/tasks.o
 .text.vTaskSwitchContext
                0x08010a70       0x74 obj/CUPDRONE/tasks.o
                0x08010a70                vTaskSwitchContext
 .text.vTaskPlaceOnEventList
                0x08010ae4       0x4c obj/CUPDRONE/tasks.o
                0x08010ae4                vTaskPlaceOnEventList
 .text.vTaskPlaceOnEventListRestricted
                0x08010b30       0x34 obj/CUPDRONE/tasks.o
                0x08010b30                vTaskPlaceOnEventListRestricted
 .text.xTaskRemoveFromEventList
                0x08010b64       0x74 obj/CUPDRONE/tasks.o
                0x08010b64                xTaskRemoveFromEventList
 .text.vTaskSetTimeOutState
                0x08010bd8       0x20 obj/CUPDRONE/tasks.o
                0x08010bd8                vTaskSetTimeOutState
 .text.xTaskCheckForTimeOut
                0x08010bf8       0x5c obj/CUPDRONE/tasks.o
                0x08010bf8                xTaskCheckForTimeOut
 .text.vTaskMissedYield
                0x08010c54        0xc obj/CUPDRONE/tasks.o
                0x08010c54                vTaskMissedYield
 .text.xTaskGetCurrentTaskHandle
                0x08010c60        0xc obj/CUPDRONE/tasks.o
                0x08010c60                xTaskGetCurrentTaskHandle
 .text.xTaskGetSchedulerState
                0x08010c6c       0x1c obj/CUPDRONE/tasks.o
                0x08010c6c                xTaskGetSchedulerState
 .text.vTaskPriorityInherit
                0x08010c88       0x68 obj/CUPDRONE/tasks.o
                0x08010c88                vTaskPriorityInherit
 .text.vTaskPriorityDisinherit
                0x08010cf0       0x48 obj/CUPDRONE/tasks.o
                0x08010cf0                vTaskPriorityDisinherit
 .text.prvCheckForValidListAndQueue
                0x08010d38       0x4c obj/CUPDRONE/timers.o
 .text.prvInsertTimerInActiveList
                0x08010d84       0x3c obj/CUPDRONE/timers.o
 .text.xTimerCreateTimerTask
                0x08010dc0       0x44 obj/CUPDRONE/timers.o
                0x08010dc0                xTimerCreateTimerTask
 .text.xTimerGenericCommand
                0x08010e04       0x40 obj/CUPDRONE/timers.o
                0x08010e04                xTimerGenericCommand
 .text.prvSwitchTimerLists.isra.1
                0x08010e44       0x78 obj/CUPDRONE/timers.o
 .text.prvTimerTask
                0x08010ebc      0x164 obj/CUPDRONE/timers.o
 .text.osThreadCreate
                0x08011020       0x32 obj/CUPDRONE/cmsis_os.o
                0x08011020                osThreadCreate
 .text.osKernelStart
                0x08011052       0x10 obj/CUPDRONE/cmsis_os.o
                0x08011052                osKernelStart
 .text.osDelay  0x08011062       0x10 obj/CUPDRONE/cmsis_os.o
                0x08011062                osDelay
 .text.osMutexCreate
                0x08011072        0x6 obj/CUPDRONE/cmsis_os.o
                0x08011072                osMutexCreate
 .text.osMutexWait
                0x08011078       0x24 obj/CUPDRONE/cmsis_os.o
                0x08011078                osMutexWait
 .text.osMutexRelease
                0x0801109c       0x1e obj/CUPDRONE/cmsis_os.o
                0x0801109c                osMutexRelease
 *fill*         0x080110ba        0x2 
 .text.pvPortMalloc
                0x080110bc       0xb8 obj/CUPDRONE/heap_2.o
                0x080110bc                pvPortMalloc
 .text.vPortFree
                0x08011174       0x40 obj/CUPDRONE/heap_2.o
                0x08011174                vPortFree
 .text.prvPortStartFirstTask
                0x080111b4       0x14 obj/CUPDRONE/port.o
 .text.pxPortInitialiseStack
                0x080111c8       0x1c obj/CUPDRONE/port.o
                0x080111c8                pxPortInitialiseStack
 .text.SVC_Handler
                0x080111e4       0x20 obj/CUPDRONE/port.o
                0x080111e4                SVC_Handler
 .text.vPortYield
                0x08011204       0x18 obj/CUPDRONE/port.o
                0x08011204                vPortYield
 .text.ulPortSetInterruptMask
                0x0801121c       0x10 obj/CUPDRONE/port.o
                0x0801121c                ulPortSetInterruptMask
 .text.prvTaskExitError
                0x0801122c       0x1c obj/CUPDRONE/port.o
 .text.vPortEnterCritical
                0x08011248       0x1c obj/CUPDRONE/port.o
                0x08011248                vPortEnterCritical
 .text.vPortClearInterruptMask
                0x08011264        0x6 obj/CUPDRONE/port.o
                0x08011264                vPortClearInterruptMask
 *fill*         0x0801126a        0x2 
 .text.vPortExitCritical
                0x0801126c       0x14 obj/CUPDRONE/port.o
                0x0801126c                vPortExitCritical
 .text.PendSV_Handler
                0x08011280       0x3c obj/CUPDRONE/port.o
                0x08011280                PendSV_Handler
 .text.xPortSysTickHandler
                0x080112bc       0x24 obj/CUPDRONE/port.o
                0x080112bc                xPortSysTickHandler
 .text.vPortSetupTimerInterrupt
                0x080112e0       0x28 obj/CUPDRONE/port.o
                0x080112e0                vPortSetupTimerInterrupt
 .text.xPortStartScheduler
                0x08011308       0x94 obj/CUPDRONE/port.o
                0x08011308                xPortStartScheduler
 .text.vPortValidateInterruptPriority
                0x0801139c       0x44 obj/CUPDRONE/port.o
                0x0801139c                vPortValidateInterruptPriority
 .text.Standard_GetConfiguration
                0x080113e0       0x24 obj/CUPDRONE/usb_core.o
                0x080113e0                Standard_GetConfiguration
 .text.Standard_GetInterface
                0x08011404       0x24 obj/CUPDRONE/usb_core.o
                0x08011404                Standard_GetInterface
 .text.Standard_GetStatus
                0x08011428       0x90 obj/CUPDRONE/usb_core.o
                0x08011428                Standard_GetStatus
 .text.DataStageIn
                0x080114b8       0xac obj/CUPDRONE/usb_core.o
 .text.Standard_SetConfiguration
                0x08011564       0x38 obj/CUPDRONE/usb_core.o
                0x08011564                Standard_SetConfiguration
 .text.Standard_SetInterface
                0x0801159c       0x48 obj/CUPDRONE/usb_core.o
                0x0801159c                Standard_SetInterface
 .text.Standard_ClearFeature
                0x080115e4       0xd8 obj/CUPDRONE/usb_core.o
                0x080115e4                Standard_ClearFeature
 .text.Standard_SetEndPointFeature
                0x080116bc       0x8c obj/CUPDRONE/usb_core.o
                0x080116bc                Standard_SetEndPointFeature
 .text.Standard_SetDeviceFeature
                0x08011748       0x24 obj/CUPDRONE/usb_core.o
                0x08011748                Standard_SetDeviceFeature
 .text.Standard_GetDescriptorData
                0x0801176c       0x1c obj/CUPDRONE/usb_core.o
                0x0801176c                Standard_GetDescriptorData
 .text.Post0_Process
                0x08011788       0x40 obj/CUPDRONE/usb_core.o
                0x08011788                Post0_Process
 .text.Setup0_Process
                0x080117c8      0x2fc obj/CUPDRONE/usb_core.o
                0x080117c8                Setup0_Process
 .text.Out0_Process
                0x08011ac4       0xcc obj/CUPDRONE/usb_core.o
                0x08011ac4                Out0_Process
 .text.SetDeviceAddress
                0x08011b90       0x40 obj/CUPDRONE/usb_core.o
                0x08011b90                SetDeviceAddress
 .text.In0_Process
                0x08011bd0       0x5c obj/CUPDRONE/usb_core.o
                0x08011bd0                In0_Process
 .text.NOP_Process
                0x08011c2c        0x2 obj/CUPDRONE/usb_core.o
                0x08011c2c                NOP_Process
 *fill*         0x08011c2e        0x2 
 .text.USB_Init
                0x08011c30       0x34 obj/CUPDRONE/usb_init.o
                0x08011c30                USB_Init
 .text.CTR_LP   0x08011c64      0x174 obj/CUPDRONE/usb_int.o
                0x08011c64                CTR_LP
 .text.UserToPMABufferCopy
                0x08011dd8       0x24 obj/CUPDRONE/usb_mem.o
                0x08011dd8                UserToPMABufferCopy
 .text.PMAToUserBufferCopy
                0x08011dfc       0x24 obj/CUPDRONE/usb_mem.o
                0x08011dfc                PMAToUserBufferCopy
 .text.SetBTABLE
                0x08011e20       0x10 obj/CUPDRONE/usb_regs.o
                0x08011e20                SetBTABLE
 .text.SetEPType
                0x08011e30       0x1c obj/CUPDRONE/usb_regs.o
                0x08011e30                SetEPType
 .text.SetEPTxStatus
                0x08011e4c       0x32 obj/CUPDRONE/usb_regs.o
                0x08011e4c                SetEPTxStatus
 .text.SetEPRxStatus
                0x08011e7e       0x32 obj/CUPDRONE/usb_regs.o
                0x08011e7e                SetEPRxStatus
 .text.SetEPTxValid
                0x08011eb0       0x26 obj/CUPDRONE/usb_regs.o
                0x08011eb0                SetEPTxValid
 .text.SetEPRxValid
                0x08011ed6       0x26 obj/CUPDRONE/usb_regs.o
                0x08011ed6                SetEPRxValid
 .text.ClearEPDoubleBuff
                0x08011efc       0x20 obj/CUPDRONE/usb_regs.o
                0x08011efc                ClearEPDoubleBuff
 .text.Clear_Status_Out
                0x08011f1c        0x4 obj/CUPDRONE/usb_regs.o
                0x08011f1c                Clear_Status_Out
 .text.ClearDTOG_RX
                0x08011f20       0x24 obj/CUPDRONE/usb_regs.o
                0x08011f20                ClearDTOG_RX
 .text.ClearDTOG_TX
                0x08011f44       0x24 obj/CUPDRONE/usb_regs.o
                0x08011f44                ClearDTOG_TX
 .text.SetEPTxCount
                0x08011f68       0x1c obj/CUPDRONE/usb_regs.o
                0x08011f68                SetEPTxCount
 .text.SetEPRxCount
                0x08011f84       0x40 obj/CUPDRONE/usb_regs.o
                0x08011f84                SetEPRxCount
 .text.SetEPDblBuf0Addr
                0x08011fc4       0x20 obj/CUPDRONE/usb_regs.o
                0x08011fc4                SetEPDblBuf0Addr
 .text.SetEPTxAddr
                0x08011fe4        0x4 obj/CUPDRONE/usb_regs.o
                0x08011fe4                SetEPTxAddr
 .text.SetEPDblBuf1Addr
                0x08011fe8       0x20 obj/CUPDRONE/usb_regs.o
                0x08011fe8                SetEPDblBuf1Addr
 .text.SetEPRxAddr
                0x08012008        0x4 obj/CUPDRONE/usb_regs.o
                0x08012008                SetEPRxAddr
 .text.GetEPDblBuf0Addr
                0x0801200c       0x20 obj/CUPDRONE/usb_regs.o
                0x0801200c                GetEPDblBuf0Addr
 .text.GetEPTxAddr
                0x0801202c        0x4 obj/CUPDRONE/usb_regs.o
                0x0801202c                GetEPTxAddr
 .text.GetEPDblBuf1Addr
                0x08012030       0x20 obj/CUPDRONE/usb_regs.o
                0x08012030                GetEPDblBuf1Addr
 .text.GetEPRxAddr
                0x08012050        0x4 obj/CUPDRONE/usb_regs.o
                0x08012050                GetEPRxAddr
 .text.GetEPDblBuf1Count
                0x08012054       0x20 obj/CUPDRONE/usb_regs.o
                0x08012054                GetEPDblBuf1Count
 .text.GetEPRxCount
                0x08012074        0x4 obj/CUPDRONE/usb_regs.o
                0x08012074                GetEPRxCount
 .text.ByteSwap
                0x08012078        0xa obj/CUPDRONE/usb_regs.o
                0x08012078                ByteSwap
 *fill*         0x08012082        0x2 
 .text.USB_SIL_Init
                0x08012084       0x20 obj/CUPDRONE/usb_sil.o
                0x08012084                USB_SIL_Init
 .text.USB_SIL_Read
                0x080120a4       0x24 obj/CUPDRONE/usb_sil.o
                0x080120a4                USB_SIL_Read
 .text.IntToUnicode
                0x080120c8       0x28 obj/CUPDRONE/hw_config.o
 .text.USB_LP_CAN1_RX0_IRQHandler
                0x080120f0        0x4 obj/CUPDRONE/hw_config.o
                0x080120f0                USB_LP_CAN1_RX0_IRQHandler
 .text.USBWakeUp_IRQHandler
                0x080120f4        0x8 obj/CUPDRONE/hw_config.o
                0x080120f4                USBWakeUp_IRQHandler
 .text.Set_System
                0x080120fc       0x50 obj/CUPDRONE/hw_config.o
                0x080120fc                Set_System
 .text.Set_USBClock
                0x0801214c       0x16 obj/CUPDRONE/hw_config.o
                0x0801214c                Set_USBClock
 .text.USB_Interrupts_Config
                0x08012162       0x3c obj/CUPDRONE/hw_config.o
                0x08012162                USB_Interrupts_Config
 *fill*         0x0801219e        0x2 
 .text.USB_Cable_Config
                0x080121a0       0x18 obj/CUPDRONE/hw_config.o
                0x080121a0                USB_Cable_Config
 .text.USB_To_USART_Send_Data
                0x080121b8       0x38 obj/CUPDRONE/hw_config.o
                0x080121b8                USB_To_USART_Send_Data
 .text.Handle_USBAsynchXfer
                0x080121f0       0x8c obj/CUPDRONE/hw_config.o
                0x080121f0                Handle_USBAsynchXfer
 .text.USB_Send_Data
                0x0801227c       0x30 obj/CUPDRONE/hw_config.o
                0x0801227c                USB_Send_Data
 .text.Get_SerialNum
                0x080122ac       0x40 obj/CUPDRONE/hw_config.o
                0x080122ac                Get_SerialNum
 .text.EP1_IN_Callback
                0x080122ec       0x64 obj/CUPDRONE/usb_endp.o
                0x080122ec                EP1_IN_Callback
 .text.EP3_OUT_Callback
                0x08012350       0x74 obj/CUPDRONE/usb_endp.o
                0x08012350                EP3_OUT_Callback
 .text.SOF_Callback
                0x080123c4       0x2c obj/CUPDRONE/usb_endp.o
                0x080123c4                SOF_Callback
 .text.USB_Istr
                0x080123f0       0x70 obj/CUPDRONE/usb_istr.o
                0x080123f0                USB_Istr
 .text.Virtual_Com_Port_SetConfiguration
                0x08012460       0x18 obj/CUPDRONE/usb_prop.o
                0x08012460                Virtual_Com_Port_SetConfiguration
 .text.Virtual_Com_Port_SetDeviceAddress
                0x08012478        0xc obj/CUPDRONE/usb_prop.o
                0x08012478                Virtual_Com_Port_SetDeviceAddress
 .text.Virtual_Com_Port_Status_In
                0x08012484       0x14 obj/CUPDRONE/usb_prop.o
                0x08012484                Virtual_Com_Port_Status_In
 .text.Virtual_Com_Port_Status_Out
                0x08012498        0x2 obj/CUPDRONE/usb_prop.o
                0x08012498                Virtual_Com_Port_Status_Out
 *fill*         0x0801249a        0x2 
 .text.Virtual_Com_Port_Data_Setup
                0x0801249c       0x5c obj/CUPDRONE/usb_prop.o
                0x0801249c                Virtual_Com_Port_Data_Setup
 .text.Virtual_Com_Port_NoData_Setup
                0x080124f8       0x38 obj/CUPDRONE/usb_prop.o
                0x080124f8                Virtual_Com_Port_NoData_Setup
 .text.Virtual_Com_Port_Get_Interface_Setting
                0x08012530       0x10 obj/CUPDRONE/usb_prop.o
                0x08012530                Virtual_Com_Port_Get_Interface_Setting
 .text.Virtual_Com_Port_SetLineCoding
                0x08012540       0x18 obj/CUPDRONE/usb_prop.o
                0x08012540                Virtual_Com_Port_SetLineCoding
 .text.Virtual_Com_Port_GetLineCoding
                0x08012558        0x4 obj/CUPDRONE/usb_prop.o
                0x08012558                Virtual_Com_Port_GetLineCoding
 .text.Virtual_Com_Port_init
                0x0801255c       0x24 obj/CUPDRONE/usb_prop.o
                0x0801255c                Virtual_Com_Port_init
 .text.Virtual_Com_Port_Reset
                0x08012580       0xe0 obj/CUPDRONE/usb_prop.o
                0x08012580                Virtual_Com_Port_Reset
 .text.Virtual_Com_Port_GetDeviceDescriptor
                0x08012660        0xc obj/CUPDRONE/usb_prop.o
                0x08012660                Virtual_Com_Port_GetDeviceDescriptor
 .text.Virtual_Com_Port_GetConfigDescriptor
                0x0801266c        0xc obj/CUPDRONE/usb_prop.o
                0x0801266c                Virtual_Com_Port_GetConfigDescriptor
 .text.Virtual_Com_Port_GetStringDescriptor
                0x08012678       0x20 obj/CUPDRONE/usb_prop.o
                0x08012678                Virtual_Com_Port_GetStringDescriptor
 .text.PowerOn  0x08012698       0x30 obj/CUPDRONE/usb_pwr.o
                0x08012698                PowerOn
 .text.thread_main
                0x080126c8       0x90 obj/CUPDRONE/thread_main.o
                0x080126c8                thread_main
 .text._menu_show_menu
                0x08012758      0x10c obj/CUPDRONE/thread_menu.o
 .text.cmd_go_bootloader
                0x08012864       0x20 obj/CUPDRONE/thread_menu.o
                0x08012864                cmd_go_bootloader
 .text.cmd_bluetooth_setup
                0x08012884      0x118 obj/CUPDRONE/thread_menu.o
                0x08012884                cmd_bluetooth_setup
 .text.cmd_bluetooth_check
                0x0801299c       0xe8 obj/CUPDRONE/thread_menu.o
                0x0801299c                cmd_bluetooth_check
 .text.cmd_bluetooth_change_name
                0x08012a84      0x124 obj/CUPDRONE/thread_menu.o
                0x08012a84                cmd_bluetooth_change_name
 .text.thread_menu
                0x08012ba8      0x164 obj/CUPDRONE/thread_menu.o
                0x08012ba8                thread_menu
 .text.thread_mw
                0x08012d0c       0x34 obj/CUPDRONE/thread_mw.o
                0x08012d0c                thread_mw
 .text.thread_nrf
                0x08012d40       0x1c obj/CUPDRONE/thread_nrf.o
                0x08012d40                thread_nrf
 .text.cosf     0x08012d5c       0x78 c:/program files (x86)/gnu tools arm embedded/5.2 2015q4/bin/../lib/gcc/arm-none-eabi/5.2.1/../../../../arm-none-eabi/lib/armv7-m\libm.a(lib_a-sf_cos.o)
                0x08012d5c                cosf
 .text.lrintf   0x08012dd4       0x78 c:/program files (x86)/gnu tools arm embedded/5.2 2015q4/bin/../lib/gcc/arm-none-eabi/5.2.1/../../../../arm-none-eabi/lib/armv7-m\libm.a(lib_a-sf_lrint.o)
                0x08012dd4                lrintf
 .text.sinf     0x08012e4c       0x7c c:/program files (x86)/gnu tools arm embedded/5.2 2015q4/bin/../lib/gcc/arm-none-eabi/5.2.1/../../../../arm-none-eabi/lib/armv7-m\libm.a(lib_a-sf_sin.o)
                0x08012e4c                sinf
 .text.atan2f   0x08012ec8        0x4 c:/program files (x86)/gnu tools arm embedded/5.2 2015q4/bin/../lib/gcc/arm-none-eabi/5.2.1/../../../../arm-none-eabi/lib/armv7-m\libm.a(lib_a-wf_atan2.o)
                0x08012ec8                atan2f
 .text.powf     0x08012ecc      0x320 c:/program files (x86)/gnu tools arm embedded/5.2 2015q4/bin/../lib/gcc/arm-none-eabi/5.2.1/../../../../arm-none-eabi/lib/armv7-m\libm.a(lib_a-wf_pow.o)
                0x08012ecc                powf
 .text.sqrtf    0x080131ec       0x98 c:/program files (x86)/gnu tools arm embedded/5.2 2015q4/bin/../lib/gcc/arm-none-eabi/5.2.1/../../../../arm-none-eabi/lib/armv7-m\libm.a(lib_a-wf_sqrt.o)
                0x080131ec                sqrtf
 .text.__ieee754_atan2f
                0x08013284      0x124 c:/program files (x86)/gnu tools arm embedded/5.2 2015q4/bin/../lib/gcc/arm-none-eabi/5.2.1/../../../../arm-none-eabi/lib/armv7-m\libm.a(lib_a-ef_atan2.o)
                0x08013284                __ieee754_atan2f
 .text.__ieee754_powf
                0x080133a8      0x70c c:/program files (x86)/gnu tools arm embedded/5.2 2015q4/bin/../lib/gcc/arm-none-eabi/5.2.1/../../../../arm-none-eabi/lib/armv7-m\libm.a(lib_a-ef_pow.o)
                0x080133a8                __ieee754_powf
 .text.__ieee754_rem_pio2f
                0x08013ab4      0x2e4 c:/program files (x86)/gnu tools arm embedded/5.2 2015q4/bin/../lib/gcc/arm-none-eabi/5.2.1/../../../../arm-none-eabi/lib/armv7-m\libm.a(lib_a-ef_rem_pio2.o)
                0x08013ab4                __ieee754_rem_pio2f
 .text.__ieee754_sqrtf
                0x08013d98       0xa8 c:/program files (x86)/gnu tools arm embedded/5.2 2015q4/bin/../lib/gcc/arm-none-eabi/5.2.1/../../../../arm-none-eabi/lib/armv7-m\libm.a(lib_a-ef_sqrt.o)
                0x08013d98                __ieee754_sqrtf
 .text.__kernel_cosf
                0x08013e40      0x188 c:/program files (x86)/gnu tools arm embedded/5.2 2015q4/bin/../lib/gcc/arm-none-eabi/5.2.1/../../../../arm-none-eabi/lib/armv7-m\libm.a(lib_a-kf_cos.o)
                0x08013e40                __kernel_cosf
 .text.__kernel_rem_pio2f
                0x08013fc8      0x6a8 c:/program files (x86)/gnu tools arm embedded/5.2 2015q4/bin/../lib/gcc/arm-none-eabi/5.2.1/../../../../arm-none-eabi/lib/armv7-m\libm.a(lib_a-kf_rem_pio2.o)
                0x08013fc8                __kernel_rem_pio2f
 .text.__kernel_sinf
                0x08014670       0xec c:/program files (x86)/gnu tools arm embedded/5.2 2015q4/bin/../lib/gcc/arm-none-eabi/5.2.1/../../../../arm-none-eabi/lib/armv7-m\libm.a(lib_a-kf_sin.o)
                0x08014670                __kernel_sinf
 .text.matherr  0x0801475c        0x4 c:/program files (x86)/gnu tools arm embedded/5.2 2015q4/bin/../lib/gcc/arm-none-eabi/5.2.1/../../../../arm-none-eabi/lib/armv7-m\libm.a(lib_a-s_matherr.o)
                0x0801475c                matherr
 .text.rint     0x08014760      0x120 c:/program files (x86)/gnu tools arm embedded/5.2 2015q4/bin/../lib/gcc/arm-none-eabi/5.2.1/../../../../arm-none-eabi/lib/armv7-m\libm.a(lib_a-s_rint.o)
                0x08014760                rint
 .text.atanf    0x08014880      0x22c c:/program files (x86)/gnu tools arm embedded/5.2 2015q4/bin/../lib/gcc/arm-none-eabi/5.2.1/../../../../arm-none-eabi/lib/armv7-m\libm.a(lib_a-sf_atan.o)
                0x08014880                atanf
 .text.fabsf    0x08014aac        0x8 c:/program files (x86)/gnu tools arm embedded/5.2 2015q4/bin/../lib/gcc/arm-none-eabi/5.2.1/../../../../arm-none-eabi/lib/armv7-m\libm.a(lib_a-sf_fabs.o)
                0x08014aac                fabsf
 .text.finitef  0x08014ab4       0x10 c:/program files (x86)/gnu tools arm embedded/5.2 2015q4/bin/../lib/gcc/arm-none-eabi/5.2.1/../../../../arm-none-eabi/lib/armv7-m\libm.a(lib_a-sf_finite.o)
                0x08014ab4                finitef
 .text.floorf   0x08014ac4       0x8c c:/program files (x86)/gnu tools arm embedded/5.2 2015q4/bin/../lib/gcc/arm-none-eabi/5.2.1/../../../../arm-none-eabi/lib/armv7-m\libm.a(lib_a-sf_floor.o)
                0x08014ac4                floorf
 .text.__fpclassifyf
                0x08014b50       0x34 c:/program files (x86)/gnu tools arm embedded/5.2 2015q4/bin/../lib/gcc/arm-none-eabi/5.2.1/../../../../arm-none-eabi/lib/armv7-m\libm.a(lib_a-sf_fpclassify.o)
                0x08014b50                __fpclassifyf
 .text.nanf     0x08014b84        0x8 c:/program files (x86)/gnu tools arm embedded/5.2 2015q4/bin/../lib/gcc/arm-none-eabi/5.2.1/../../../../arm-none-eabi/lib/armv7-m\libm.a(lib_a-sf_nan.o)
                0x08014b84                nanf
 .text.scalbnf  0x08014b8c       0xb0 c:/program files (x86)/gnu tools arm embedded/5.2 2015q4/bin/../lib/gcc/arm-none-eabi/5.2.1/../../../../arm-none-eabi/lib/armv7-m\libm.a(lib_a-sf_scalbn.o)
                0x08014b8c                scalbnf
 .text.copysignf
                0x08014c3c        0xc c:/program files (x86)/gnu tools arm embedded/5.2 2015q4/bin/../lib/gcc/arm-none-eabi/5.2.1/../../../../arm-none-eabi/lib/armv7-m\libm.a(lib_a-sf_copysign.o)
                0x08014c3c                copysignf
 .text.atoi     0x08014c48        0x8 c:/program files (x86)/gnu tools arm embedded/5.2 2015q4/bin/../lib/gcc/arm-none-eabi/5.2.1/../../../../arm-none-eabi/lib/armv7-m\libc.a(lib_a-atoi.o)
                0x08014c48                atoi
 .text.bsearch  0x08014c50       0x44 c:/program files (x86)/gnu tools arm embedded/5.2 2015q4/bin/../lib/gcc/arm-none-eabi/5.2.1/../../../../arm-none-eabi/lib/armv7-m\libc.a(lib_a-bsearch.o)
                0x08014c50                bsearch
 .text.__errno  0x08014c94        0xc c:/program files (x86)/gnu tools arm embedded/5.2 2015q4/bin/../lib/gcc/arm-none-eabi/5.2.1/../../../../arm-none-eabi/lib/armv7-m\libc.a(lib_a-errno.o)
                0x08014c94                __errno
 .text.__libc_init_array
                0x08014ca0       0x50 c:/program files (x86)/gnu tools arm embedded/5.2 2015q4/bin/../lib/gcc/arm-none-eabi/5.2.1/../../../../arm-none-eabi/lib/armv7-m\libc.a(lib_a-init.o)
                0x08014ca0                __libc_init_array
 .text.memset   0x08014cf0       0x9c c:/program files (x86)/gnu tools arm embedded/5.2 2015q4/bin/../lib/gcc/arm-none-eabi/5.2.1/../../../../arm-none-eabi/lib/armv7-m\libc.a(lib_a-memset.o)
                0x08014cf0                memset
 .text.strcat   0x08014d8c       0x40 c:/program files (x86)/gnu tools arm embedded/5.2 2015q4/bin/../lib/gcc/arm-none-eabi/5.2.1/../../../../arm-none-eabi/lib/armv7-m\libc.a(lib_a-strcat.o)
                0x08014d8c                strcat
 .text.strchr   0x08014dcc       0xd0 c:/program files (x86)/gnu tools arm embedded/5.2 2015q4/bin/../lib/gcc/arm-none-eabi/5.2.1/../../../../arm-none-eabi/lib/armv7-m\libc.a(lib_a-strchr.o)
                0x08014dcc                strchr
 .text.strcpy   0x08014e9c       0xbc c:/program files (x86)/gnu tools arm embedded/5.2 2015q4/bin/../lib/gcc/arm-none-eabi/5.2.1/../../../../arm-none-eabi/lib/armv7-m\libc.a(lib_a-strcpy.o)
                0x08014e9c                strcpy
 .text.strlen   0x08014f58       0x5c c:/program files (x86)/gnu tools arm embedded/5.2 2015q4/bin/../lib/gcc/arm-none-eabi/5.2.1/../../../../arm-none-eabi/lib/armv7-m\libc.a(lib_a-strlen-stub.o)
                0x08014f58                strlen
 .text.strncasecmp
                0x08014fb4       0x54 c:/program files (x86)/gnu tools arm embedded/5.2 2015q4/bin/../lib/gcc/arm-none-eabi/5.2.1/../../../../arm-none-eabi/lib/armv7-m\libc.a(lib_a-strncasecmp.o)
                0x08014fb4                strncasecmp
 .text.strncpy  0x08015008       0x68 c:/program files (x86)/gnu tools arm embedded/5.2 2015q4/bin/../lib/gcc/arm-none-eabi/5.2.1/../../../../arm-none-eabi/lib/armv7-m\libc.a(lib_a-strncpy.o)
                0x08015008                strncpy
 .text.critical_factorization
                0x08015070       0xb8 c:/program files (x86)/gnu tools arm embedded/5.2 2015q4/bin/../lib/gcc/arm-none-eabi/5.2.1/../../../../arm-none-eabi/lib/armv7-m\libc.a(lib_a-strstr.o)
 .text.two_way_long_needle
                0x08015128      0x200 c:/program files (x86)/gnu tools arm embedded/5.2 2015q4/bin/../lib/gcc/arm-none-eabi/5.2.1/../../../../arm-none-eabi/lib/armv7-m\libc.a(lib_a-strstr.o)
 .text.strstr   0x08015328      0x220 c:/program files (x86)/gnu tools arm embedded/5.2 2015q4/bin/../lib/gcc/arm-none-eabi/5.2.1/../../../../arm-none-eabi/lib/armv7-m\libc.a(lib_a-strstr.o)
                0x08015328                strstr
 .text.strtok   0x08015548       0x10 c:/program files (x86)/gnu tools arm embedded/5.2 2015q4/bin/../lib/gcc/arm-none-eabi/5.2.1/../../../../arm-none-eabi/lib/armv7-m\libc.a(lib_a-strtok.o)
                0x08015548                strtok
 .text.__strtok_r
                0x08015558       0x64 c:/program files (x86)/gnu tools arm embedded/5.2 2015q4/bin/../lib/gcc/arm-none-eabi/5.2.1/../../../../arm-none-eabi/lib/armv7-m\libc.a(lib_a-strtok_r.o)
                0x08015558                __strtok_r
 .text._strtol_r
                0x080155bc      0x128 c:/program files (x86)/gnu tools arm embedded/5.2 2015q4/bin/../lib/gcc/arm-none-eabi/5.2.1/../../../../arm-none-eabi/lib/armv7-m\libc.a(lib_a-strtol.o)
                0x080155bc                _strtol_r
 .text.strtol   0x080156e4       0x18 c:/program files (x86)/gnu tools arm embedded/5.2 2015q4/bin/../lib/gcc/arm-none-eabi/5.2.1/../../../../arm-none-eabi/lib/armv7-m\libc.a(lib_a-strtol.o)
                0x080156e4                strtol
 .text.startup.register_fini
                0x080156fc       0x14 c:/program files (x86)/gnu tools arm embedded/5.2 2015q4/bin/../lib/gcc/arm-none-eabi/5.2.1/../../../../arm-none-eabi/lib/armv7-m\libc.a(lib_a-__call_atexit.o)
 .text.atexit   0x08015710        0xc c:/program files (x86)/gnu tools arm embedded/5.2 2015q4/bin/../lib/gcc/arm-none-eabi/5.2.1/../../../../arm-none-eabi/lib/armv7-m\libc.a(lib_a-atexit.o)
                0x08015710                atexit
 .text.__libc_fini_array
                0x0801571c       0x28 c:/program files (x86)/gnu tools arm embedded/5.2 2015q4/bin/../lib/gcc/arm-none-eabi/5.2.1/../../../../arm-none-eabi/lib/armv7-m\libc.a(lib_a-fini.o)
                0x0801571c                __libc_fini_array
 .text.memchr   0x08015744       0x8c c:/program files (x86)/gnu tools arm embedded/5.2 2015q4/bin/../lib/gcc/arm-none-eabi/5.2.1/../../../../arm-none-eabi/lib/armv7-m\libc.a(lib_a-memchr-stub.o)
                0x08015744                memchr
 .text.memcmp   0x080157d0       0x64 c:/program files (x86)/gnu tools arm embedded/5.2 2015q4/bin/../lib/gcc/arm-none-eabi/5.2.1/../../../../arm-none-eabi/lib/armv7-m\libc.a(lib_a-memcmp.o)
                0x080157d0                memcmp
 .text.__register_exitproc
                0x08015834       0xa4 c:/program files (x86)/gnu tools arm embedded/5.2 2015q4/bin/../lib/gcc/arm-none-eabi/5.2.1/../../../../arm-none-eabi/lib/armv7-m\libc.a(lib_a-__atexit.o)
                0x08015834                __register_exitproc
 *(.rodata)
 .rodata        0x080158d8        0x8 obj/CUPDRONE/config.o
 .rodata        0x080158e0       0x10 obj/CUPDRONE/drv_system.o
 .rodata        0x080158f0        0x4 obj/CUPDRONE/usb_endp.o
 .rodata        0x080158f4       0x3c obj/CUPDRONE/thread_main.o
 .rodata        0x08015930       0x14 obj/CUPDRONE/thread_menu.o
 *(.rodata*)
 .rodata.airPPM
                0x08015944        0xc obj/CUPDRONE/drv_pwm.o
 .rodata.multiPPM
                0x08015950        0xc obj/CUPDRONE/drv_pwm.o
 .rodata.hardwareMaps
                0x0801595c       0x10 obj/CUPDRONE/drv_pwm.o
 .rodata.airPWM
                0x0801596c        0xf obj/CUPDRONE/drv_pwm.o
 .rodata.multiPWM
                0x0801597b        0xf obj/CUPDRONE/drv_pwm.o
 *fill*         0x0801598a        0x2 
 .rodata.timerHardware
                0x0801598c       0xe0 obj/CUPDRONE/drv_timer.o
                0x0801598c                timerHardware
 .rodata.timers
                0x08015a6c       0x10 obj/CUPDRONE/drv_timer.o
 .rodata.channels
                0x08015a7c        0x4 obj/CUPDRONE/drv_timer.o
 .rodata.CSWTCH.20
                0x08015a80       0x16 obj/CUPDRONE/buzzer.o
 *fill*         0x08015a96        0x2 
 .rodata.featureNames
                0x08015a98       0x40 obj/CUPDRONE/cli.o
 .rodata.mixerNames
                0x08015ad8       0x5c obj/CUPDRONE/cli.o
 .rodata.cmdTable
                0x08015b34       0xc0 obj/CUPDRONE/cli.o
                0x08015b34                cmdTable
 .rodata.accNames
                0x08015bf4       0x1c obj/CUPDRONE/cli.o
 .rodata.str1.1
                0x08015c10      0xdd0 obj/CUPDRONE/cli.o
                                0xe42 (size before relaxing)
 .rodata.sensorNames
                0x080169e0       0x20 obj/CUPDRONE/cli.o
 .rodata.valueTable
                0x08016a00      0x820 obj/CUPDRONE/cli.o
                0x08016a00                valueTable
 .rodata.rcChannelLetters
                0x08017220        0x9 obj/CUPDRONE/config.o
                0x08017220                rcChannelLetters
 .rodata.str1.1
                0x08017229        0x9 obj/CUPDRONE/config.o
 .rodata.str1.1
                0x08017232       0xda obj/CUPDRONE/gps.o
                                 0xdb (size before relaxing)
 .rodata.gpsInitData
                0x0801730c       0x3c obj/CUPDRONE/gps.o
 .rodata.ubloxInit
                0x08017348       0x8c obj/CUPDRONE/gps.o
 .rodata.str1.1
                0x080173d4       0x1d obj/CUPDRONE/main.o
                                 0x20 (size before relaxing)
 *fill*         0x080173f1        0x3 
 .rodata.mixerOctoFlatX
                0x080173f4       0x80 obj/CUPDRONE/mixer.o
 .rodata.mixerTri
                0x08017474       0x30 obj/CUPDRONE/mixer.o
 .rodata.mixerHex6H
                0x080174a4       0x60 obj/CUPDRONE/mixer.o
 .rodata.mixerY6
                0x08017504       0x60 obj/CUPDRONE/mixer.o
 .rodata.mixers
                0x08017564       0xb8 obj/CUPDRONE/mixer.o
                0x08017564                mixers
 .rodata.mixerOctoFlatP
                0x0801761c       0x80 obj/CUPDRONE/mixer.o
 .rodata.mixerQuadX
                0x0801769c       0x40 obj/CUPDRONE/mixer.o
 .rodata.mixerY4
                0x080176dc       0x40 obj/CUPDRONE/mixer.o
 .rodata.mixerVtail4
                0x0801771c       0x40 obj/CUPDRONE/mixer.o
 .rodata.mixerDualcopter
                0x0801775c       0x20 obj/CUPDRONE/mixer.o
 .rodata.mixerQuadP
                0x0801777c       0x40 obj/CUPDRONE/mixer.o
 .rodata.mixerHex6X
                0x080177bc       0x60 obj/CUPDRONE/mixer.o
 .rodata.mixerHex6P
                0x0801781c       0x60 obj/CUPDRONE/mixer.o
 .rodata.mixerOctoX8
                0x0801787c       0x80 obj/CUPDRONE/mixer.o
 .rodata.mixerBi
                0x080178fc       0x20 obj/CUPDRONE/mixer.o
 .rodata.str1.1
                0x0801791c       0x4a obj/CUPDRONE/sensors.o
 .rodata.pidnames
                0x08017966       0x30 obj/CUPDRONE/serial.o
 .rodata.str1.1
                0x08017996       0xe7 obj/CUPDRONE/serial.o
 *fill*         0x08017a7d        0x3 
 .rodata.softSerialVTable
                0x08017a80       0x14 obj/CUPDRONE/drv_softserial.o
                0x08017a80                softSerialVTable
 .rodata.uartVTable
                0x08017a94       0x14 obj/CUPDRONE/drv_uart.o
                0x08017a94                uartVTable
 .rodata.str1.1
                0x08017aa8        0x5 obj/CUPDRONE/tasks.o
 .rodata.str1.1
                0x08017aad        0x8 obj/CUPDRONE/timers.o
 .rodata.Virtual_Com_Port_StringVendor
                0x08017ab5       0x12 obj/CUPDRONE/usb_desc.o
                0x08017ab5                Virtual_Com_Port_StringVendor
 .rodata.Virtual_Com_Port_DeviceDescriptor
                0x08017ac7       0x12 obj/CUPDRONE/usb_desc.o
                0x08017ac7                Virtual_Com_Port_DeviceDescriptor
 .rodata.Virtual_Com_Port_StringLangID
                0x08017ad9        0x4 obj/CUPDRONE/usb_desc.o
                0x08017ad9                Virtual_Com_Port_StringLangID
 .rodata.Virtual_Com_Port_StringProduct
                0x08017add       0x34 obj/CUPDRONE/usb_desc.o
                0x08017add                Virtual_Com_Port_StringProduct
 .rodata.Virtual_Com_Port_ConfigDescriptor
                0x08017b11       0x43 obj/CUPDRONE/usb_desc.o
                0x08017b11                Virtual_Com_Port_ConfigDescriptor
 .rodata.str1.1
                0x08017b54       0x1f obj/CUPDRONE/thread_main.o
 *fill*         0x08017b73        0x1 
 .rodata.os_mutex_def_MUTEX1
                0x08017b74        0x4 obj/CUPDRONE/thread_main.o
                0x08017b74                os_mutex_def_MUTEX1
 .rodata.str1.1
                0x08017b78      0x3f6 obj/CUPDRONE/thread_menu.o
                                0x413 (size before relaxing)
 .rodata.str1.1
                0x08017f6e       0x12 obj/CUPDRONE/thread_mw.o
 .rodata.str1.1
                0x08017f80        0xd obj/CUPDRONE/thread_nrf.o
 *fill*         0x08017f8d        0x3 
 .rodata.TWO23  0x08017f90        0x8 c:/program files (x86)/gnu tools arm embedded/5.2 2015q4/bin/../lib/gcc/arm-none-eabi/5.2.1/../../../../arm-none-eabi/lib/armv7-m\libm.a(lib_a-sf_lrint.o)
 .rodata.str1.4
                0x08017f98        0x5 c:/program files (x86)/gnu tools arm embedded/5.2 2015q4/bin/../lib/gcc/arm-none-eabi/5.2.1/../../../../arm-none-eabi/lib/armv7-m\libm.a(lib_a-wf_pow.o)
 *fill*         0x08017f9d        0x3 
 .rodata.str1.4
                0x08017fa0        0x6 c:/program files (x86)/gnu tools arm embedded/5.2 2015q4/bin/../lib/gcc/arm-none-eabi/5.2.1/../../../../arm-none-eabi/lib/armv7-m\libm.a(lib_a-wf_sqrt.o)
 .rodata.str1.4
                0x08017fa6        0x6 c:/program files (x86)/gnu tools arm embedded/5.2 2015q4/bin/../lib/gcc/arm-none-eabi/5.2.1/../../../../arm-none-eabi/lib/armv7-m\libm.a(lib_a-ef_pow.o)
                                  0x1 (size before relaxing)
 *fill*         0x08017fa6        0x2 
 .rodata.npio2_hw
                0x08017fa8       0x80 c:/program files (x86)/gnu tools arm embedded/5.2 2015q4/bin/../lib/gcc/arm-none-eabi/5.2.1/../../../../arm-none-eabi/lib/armv7-m\libm.a(lib_a-ef_rem_pio2.o)
 .rodata.two_over_pi
                0x08018028      0x318 c:/program files (x86)/gnu tools arm embedded/5.2 2015q4/bin/../lib/gcc/arm-none-eabi/5.2.1/../../../../arm-none-eabi/lib/armv7-m\libm.a(lib_a-ef_rem_pio2.o)
 .rodata.init_jk
                0x08018340        0xc c:/program files (x86)/gnu tools arm embedded/5.2 2015q4/bin/../lib/gcc/arm-none-eabi/5.2.1/../../../../arm-none-eabi/lib/armv7-m\libm.a(lib_a-kf_rem_pio2.o)
 .rodata.PIo2   0x0801834c       0x2c c:/program files (x86)/gnu tools arm embedded/5.2 2015q4/bin/../lib/gcc/arm-none-eabi/5.2.1/../../../../arm-none-eabi/lib/armv7-m\libm.a(lib_a-kf_rem_pio2.o)
 .rodata.TWO52  0x08018378       0x10 c:/program files (x86)/gnu tools arm embedded/5.2 2015q4/bin/../lib/gcc/arm-none-eabi/5.2.1/../../../../arm-none-eabi/lib/armv7-m\libm.a(lib_a-s_rint.o)
 .rodata.atanlo
                0x08018388       0x10 c:/program files (x86)/gnu tools arm embedded/5.2 2015q4/bin/../lib/gcc/arm-none-eabi/5.2.1/../../../../arm-none-eabi/lib/armv7-m\libm.a(lib_a-sf_atan.o)
 .rodata.atanhi
                0x08018398       0x10 c:/program files (x86)/gnu tools arm embedded/5.2 2015q4/bin/../lib/gcc/arm-none-eabi/5.2.1/../../../../arm-none-eabi/lib/armv7-m\libm.a(lib_a-sf_atan.o)
 .rodata._ctype_
                0x080183a8      0x101 c:/program files (x86)/gnu tools arm embedded/5.2 2015q4/bin/../lib/gcc/arm-none-eabi/5.2.1/../../../../arm-none-eabi/lib/armv7-m\libc.a(lib_a-ctype_.o)
                0x080183a8                _ctype_
 *fill*         0x080184a9        0x3 
 .rodata.str1.4
                0x080184ac        0x4 c:/program files (x86)/gnu tools arm embedded/5.2 2015q4/bin/../lib/gcc/arm-none-eabi/5.2.1/../../../../arm-none-eabi/lib/armv7-m\libc.a(lib_a-impure.o)
                                  0x2 (size before relaxing)
 .rodata._global_impure_ptr
                0x080184b0        0x4 c:/program files (x86)/gnu tools arm embedded/5.2 2015q4/bin/../lib/gcc/arm-none-eabi/5.2.1/../../../../arm-none-eabi/lib/armv7-m\libc.a(lib_a-impure.o)
                0x080184b0                _global_impure_ptr
 *(.glue_7)
 .glue_7        0x080184b4        0x0 linker stubs
 *(.glue_7t)
 .glue_7t       0x080184b4        0x0 linker stubs
 *(.eh_frame)
 .eh_frame      0x080184b4        0x0 c:/program files (x86)/gnu tools arm embedded/5.2 2015q4/bin/../lib/gcc/arm-none-eabi/5.2.1/armv7-m/crtbegin.o
 *(.init)
 .init          0x080184b4        0x4 c:/program files (x86)/gnu tools arm embedded/5.2 2015q4/bin/../lib/gcc/arm-none-eabi/5.2.1/armv7-m/crti.o
                0x080184b4                _init
 .init          0x080184b8        0x8 c:/program files (x86)/gnu tools arm embedded/5.2 2015q4/bin/../lib/gcc/arm-none-eabi/5.2.1/armv7-m/crtn.o
 *(.fini)
 .fini          0x080184c0        0x4 c:/program files (x86)/gnu tools arm embedded/5.2 2015q4/bin/../lib/gcc/arm-none-eabi/5.2.1/armv7-m/crti.o
                0x080184c0                _fini
 .fini          0x080184c4        0x8 c:/program files (x86)/gnu tools arm embedded/5.2 2015q4/bin/../lib/gcc/arm-none-eabi/5.2.1/armv7-m/crtn.o
                0x080184cc                . = ALIGN (0x4)
                0x080184cc                _etext = .

.vfp11_veneer   0x080184cc        0x0
 .vfp11_veneer  0x080184cc        0x0 linker stubs

.v4_bx          0x080184cc        0x0
 .v4_bx         0x080184cc        0x0 linker stubs

.iplt           0x080184cc        0x0
 .iplt          0x080184cc        0x0 c:/program files (x86)/gnu tools arm embedded/5.2 2015q4/bin/../lib/gcc/arm-none-eabi/5.2.1/armv7-m/crtbegin.o

.rel.dyn        0x080184cc        0x0
 .rel.iplt      0x080184cc        0x0 c:/program files (x86)/gnu tools arm embedded/5.2 2015q4/bin/../lib/gcc/arm-none-eabi/5.2.1/armv7-m/crtbegin.o

.ARM.extab
 *(.ARM.extab* .gnu.linkonce.armextab.*)

.ARM            0x080184cc        0x0
                0x080184cc                __exidx_start = .
 *(.ARM.exidx*)
                0x080184cc                __exidx_end = .

.preinit_array  0x080184cc        0x0
                0x080184cc                PROVIDE (__preinit_array_start, .)
 *(.preinit_array*)
                0x080184cc                PROVIDE (__preinit_array_end, .)

.init_array     0x080184cc        0x8
                0x080184cc                PROVIDE (__init_array_start, .)
 *(SORT(.init_array.*))
 .init_array.00000
                0x080184cc        0x4 c:/program files (x86)/gnu tools arm embedded/5.2 2015q4/bin/../lib/gcc/arm-none-eabi/5.2.1/../../../../arm-none-eabi/lib/armv7-m\libc.a(lib_a-__call_atexit.o)
 *(.init_array*)
 .init_array    0x080184d0        0x4 c:/program files (x86)/gnu tools arm embedded/5.2 2015q4/bin/../lib/gcc/arm-none-eabi/5.2.1/armv7-m/crtbegin.o
                0x080184d4                PROVIDE (__init_array_end, .)

.fini_array     0x080184d4        0x4
                0x080184d4                PROVIDE (__fini_array_start, .)
 *(.fini_array*)
 .fini_array    0x080184d4        0x4 c:/program files (x86)/gnu tools arm embedded/5.2 2015q4/bin/../lib/gcc/arm-none-eabi/5.2.1/armv7-m/crtbegin.o
 *(SORT(.fini_array.*))
                0x080184d8                PROVIDE (__fini_array_end, .)
                0x080184d8                _sidata = .

.data           0x20000000      0x694 load address 0x080184d8
                0x20000000                . = ALIGN (0x4)
                0x20000000                _sdata = .
 *(.data)
 *(.data*)
 .data.accAlign
                0x20000000        0x1 obj/CUPDRONE/drv_adxl345.o
 .data.accAlign
                0x20000001        0x1 obj/CUPDRONE/drv_bma280.o
 *fill*         0x20000002        0x2 
 .data.magGain  0x20000004        0xc obj/CUPDRONE/drv_hmc5883l.o
 .data.magAlign
                0x20000010        0x1 obj/CUPDRONE/drv_hmc5883l.o
 .data.accAlign
                0x20000011        0x1 obj/CUPDRONE/drv_mma845x.o
 .data.mpuLowPassFilter
                0x20000012        0x1 obj/CUPDRONE/drv_mpu3050.o
 .data.gyroAlign
                0x20000013        0x1 obj/CUPDRONE/drv_mpu3050.o
 .data.accAlign
                0x20000014        0x1 obj/CUPDRONE/drv_mpu6050.o
 .data.mpuLowPassFilter
                0x20000015        0x1 obj/CUPDRONE/drv_mpu6050.o
 .data.gyroAlign
                0x20000016        0x1 obj/CUPDRONE/drv_mpu6050.o
 .data.gyroAlign
                0x20000017        0x1 obj/CUPDRONE/drv_l3g4200d.o
 .data.failsafeThreshold
                0x20000018        0x2 obj/CUPDRONE/drv_pwm.o
 *fill*         0x2000001a        0x2 
 .data.GPS_scaleLonDown
                0x2000001c        0x4 obj/CUPDRONE/gps.o
 .data.EstN.9845
                0x20000020        0xc obj/CUPDRONE/imu.o
 .data.servo    0x2000002c       0x10 obj/CUPDRONE/mixer.o
                0x2000002c                servo
 .data.batteryCellCount
                0x2000003c        0x1 obj/CUPDRONE/mw.o
                0x2000003c                batteryCellCount
 *fill*         0x2000003d        0x3 
 .data.pid_controller
                0x20000040        0x4 obj/CUPDRONE/mw.o
                0x20000040                pid_controller
 .data.GPSNavReset.9925
                0x20000044        0x1 obj/CUPDRONE/mw.o
 *fill*         0x20000045        0x1 
 .data.acc_1G   0x20000046        0x2 obj/CUPDRONE/sensors.o
                0x20000046                acc_1G
 .data.boxes    0x20000048      0x108 obj/CUPDRONE/serial.o
                0x20000048                boxes
 .data.standardBoardAlignment
                0x20000150        0x1 obj/CUPDRONE/utils.o
 *fill*         0x20000151        0x3 
 .data.hse_value
                0x20000154        0x4 obj/CUPDRONE/system_stm32f10x.o
                0x20000154                hse_value
 .data.SystemCoreClock
                0x20000158        0x4 obj/CUPDRONE/system_stm32f10x.o
                0x20000158                SystemCoreClock
 .data.ADCPrescTable
                0x2000015c        0x4 obj/CUPDRONE/stm32f10x_rcc.o
 .data.APBAHBPrescTable
                0x20000160       0x10 obj/CUPDRONE/stm32f10x_rcc.o
 .data.xNextTaskUnblockTime
                0x20000170        0x4 obj/CUPDRONE/tasks.o
 .data.xFreeBytesRemaining
                0x20000174        0x4 obj/CUPDRONE/heap_2.o
 .data.uxCriticalNesting
                0x20000178        0x4 obj/CUPDRONE/port.o
 .data.Virtual_Com_Port_StringSerial
                0x2000017c       0x1a obj/CUPDRONE/usb_desc.o
                0x2000017c                Virtual_Com_Port_StringSerial
 *fill*         0x20000196        0x2 
 .data.pEpInt_IN
                0x20000198       0x1c obj/CUPDRONE/usb_istr.o
                0x20000198                pEpInt_IN
 .data.pEpInt_OUT
                0x200001b4       0x1c obj/CUPDRONE/usb_istr.o
                0x200001b4                pEpInt_OUT
 .data.Config_Descriptor
                0x200001d0        0x8 obj/CUPDRONE/usb_prop.o
                0x200001d0                Config_Descriptor
 .data.Device_Property
                0x200001d8       0x30 obj/CUPDRONE/usb_prop.o
                0x200001d8                Device_Property
 .data.User_Standard_Requests
                0x20000208       0x24 obj/CUPDRONE/usb_prop.o
                0x20000208                User_Standard_Requests
 .data.Device_Descriptor
                0x2000022c        0x8 obj/CUPDRONE/usb_prop.o
                0x2000022c                Device_Descriptor
 .data.String_Descriptor
                0x20000234       0x20 obj/CUPDRONE/usb_prop.o
                0x20000234                String_Descriptor
 .data.linecoding
                0x20000254        0x8 obj/CUPDRONE/usb_prop.o
                0x20000254                linecoding
 .data.Device_Table
                0x2000025c        0x2 obj/CUPDRONE/usb_prop.o
                0x2000025c                Device_Table
 .data.__fdlib_version
                0x2000025e        0x1 c:/program files (x86)/gnu tools arm embedded/5.2 2015q4/bin/../lib/gcc/arm-none-eabi/5.2.1/../../../../arm-none-eabi/lib/armv7-m\libm.a(lib_a-s_lib_ver.o)
                0x2000025e                __fdlib_version
 *fill*         0x2000025f        0x1 
 .data.__ctype_ptr__
                0x20000260        0x4 c:/program files (x86)/gnu tools arm embedded/5.2 2015q4/bin/../lib/gcc/arm-none-eabi/5.2.1/../../../../arm-none-eabi/lib/armv7-m\libc.a(lib_a-ctype_.o)
                0x20000260                __ctype_ptr__
 *fill*         0x20000264        0x4 
 .data.impure_data
                0x20000268      0x428 c:/program files (x86)/gnu tools arm embedded/5.2 2015q4/bin/../lib/gcc/arm-none-eabi/5.2.1/../../../../arm-none-eabi/lib/armv7-m\libc.a(lib_a-impure.o)
 .data._impure_ptr
                0x20000690        0x4 c:/program files (x86)/gnu tools arm embedded/5.2 2015q4/bin/../lib/gcc/arm-none-eabi/5.2.1/../../../../arm-none-eabi/lib/armv7-m\libc.a(lib_a-impure.o)
                0x20000690                _impure_ptr
                0x20000694                . = ALIGN (0x4)
                0x20000694                _edata = .

.jcr            0x20000694        0x0 load address 0x08018b6c
 .jcr           0x20000694        0x0 c:/program files (x86)/gnu tools arm embedded/5.2 2015q4/bin/../lib/gcc/arm-none-eabi/5.2.1/armv7-m/crtbegin.o

.tm_clone_table
                0x20000694        0x0 load address 0x08018b6c
 .tm_clone_table
                0x20000694        0x0 c:/program files (x86)/gnu tools arm embedded/5.2 2015q4/bin/../lib/gcc/arm-none-eabi/5.2.1/armv7-m/crtbegin.o
 .tm_clone_table
                0x20000694        0x0 c:/program files (x86)/gnu tools arm embedded/5.2 2015q4/bin/../lib/gcc/arm-none-eabi/5.2.1/armv7-m/crtend.o

.igot.plt       0x20000694        0x0 load address 0x08018b6c
 .igot.plt      0x20000694        0x0 c:/program files (x86)/gnu tools arm embedded/5.2 2015q4/bin/../lib/gcc/arm-none-eabi/5.2.1/armv7-m/crtbegin.o
                0x20000694                . = ALIGN (0x4)

.bss            0x20000694     0x36ec load address 0x08018b6c
                0x20000694                _sbss = .
                0x20000694                __bss_start__ = _sbss
 *(.bss)
 .bss           0x20000694       0x1c c:/program files (x86)/gnu tools arm embedded/5.2 2015q4/bin/../lib/gcc/arm-none-eabi/5.2.1/armv7-m/crtbegin.o
 *(.bss*)
 .bss.adcValues
                0x200006b0        0x4 obj/CUPDRONE/drv_adc.o
 .bss.useFifo   0x200006b4        0x1 obj/CUPDRONE/drv_adxl345.o
 .bss.acc_samples
                0x200006b5        0x1 obj/CUPDRONE/drv_adxl345.o
                0x200006b5                acc_samples
 .bss.convDone  0x200006b6        0x1 obj/CUPDRONE/drv_bmp085.o
 *fill*         0x200006b7        0x1 
 .bss.convOverrun
                0x200006b8        0x2 obj/CUPDRONE/drv_bmp085.o
 *fill*         0x200006ba        0x2 
 .bss.bmp085    0x200006bc       0x24 obj/CUPDRONE/drv_bmp085.o
 .bss.bmp085_up
                0x200006e0        0x4 obj/CUPDRONE/drv_bmp085.o
 .bss.bmp085InitDone
                0x200006e4        0x1 obj/CUPDRONE/drv_bmp085.o
 *fill*         0x200006e5        0x1 
 .bss.bmp085_ut
                0x200006e6        0x2 obj/CUPDRONE/drv_bmp085.o
 .bss.ms5611_up
                0x200006e8        0x4 obj/CUPDRONE/drv_ms5611.o
 .bss.ms5611_ut
                0x200006ec        0x4 obj/CUPDRONE/drv_ms5611.o
 .bss.ms5611_c  0x200006f0       0x10 obj/CUPDRONE/drv_ms5611.o
 .bss.last_measurement
                0x20000700        0x4 obj/CUPDRONE/drv_hcsr04.o
 .bss.echo_pin  0x20000704        0x2 obj/CUPDRONE/drv_hcsr04.o
 *fill*         0x20000706        0x2 
 .bss.timing_start.9753
                0x20000708        0x4 obj/CUPDRONE/drv_hcsr04.o
 .bss.exti_irqn
                0x2000070c        0x1 obj/CUPDRONE/drv_hcsr04.o
 .bss.exti_pin_source
                0x2000070d        0x1 obj/CUPDRONE/drv_hcsr04.o
 *fill*         0x2000070e        0x2 
 .bss.exti_line
                0x20000710        0x4 obj/CUPDRONE/drv_hcsr04.o
 .bss.distance_ptr
                0x20000714        0x4 obj/CUPDRONE/drv_hcsr04.o
 .bss.trigger_pin
                0x20000718        0x2 obj/CUPDRONE/drv_hcsr04.o
 .bss.mpuAccelHalf
                0x2000071a        0x1 obj/CUPDRONE/drv_mpu6050.o
 .bss.mpuLowPassFilter
                0x2000071b        0x1 obj/CUPDRONE/drv_l3g4200d.o
 .bss.captures  0x2000071c       0x10 obj/CUPDRONE/drv_pwm.o
 .bss.pwmPorts  0x2000072c       0xe0 obj/CUPDRONE/drv_pwm.o
 .bss.numInputs
                0x2000080c        0x1 obj/CUPDRONE/drv_pwm.o
 .bss.numMotors
                0x2000080d        0x1 obj/CUPDRONE/drv_pwm.o
 .bss.numServos
                0x2000080e        0x1 obj/CUPDRONE/drv_pwm.o
 *fill*         0x2000080f        0x1 
 .bss.pwmWritePtr
                0x20000810        0x4 obj/CUPDRONE/drv_pwm.o
 .bss.motors    0x20000814       0x30 obj/CUPDRONE/drv_pwm.o
 .bss.now.9389  0x20000844        0x2 obj/CUPDRONE/drv_pwm.o
 *fill*         0x20000846        0x2 
 .bss.servos    0x20000848       0x20 obj/CUPDRONE/drv_pwm.o
 .bss.GoodPulses.9392
                0x20000868        0x1 obj/CUPDRONE/drv_pwm.o
 .bss.chan.9391
                0x20000869        0x1 obj/CUPDRONE/drv_pwm.o
 *fill*         0x2000086a        0x2 
 .bss.hexairbotChannelData
                0x2000086c       0x20 obj/CUPDRONE/hexairbot.o
 .bss.hexairbotFrameDone
                0x2000088c        0x1 obj/CUPDRONE/hexairbot.o
 .bss.warn_failsafe.9758
                0x2000088d        0x1 obj/CUPDRONE/buzzer.o
 .bss.buzzerIsOn
                0x2000088e        0x1 obj/CUPDRONE/buzzer.o
 .bss.beepDone  0x2000088f        0x1 obj/CUPDRONE/buzzer.o
 .bss.beeperOnBox.9756
                0x20000890        0x1 obj/CUPDRONE/buzzer.o
 .bss.warn_noGPSfix.9757
                0x20000891        0x1 obj/CUPDRONE/buzzer.o
 .bss.icnt.9768
                0x20000892        0x1 obj/CUPDRONE/buzzer.o
 *fill*         0x20000893        0x1 
 .bss.buzzerLastToggleTime
                0x20000894        0x4 obj/CUPDRONE/buzzer.o
 .bss.cliBuffer
                0x20000898       0x30 obj/CUPDRONE/cli.o
 .bss.bufferIndex
                0x200008c8        0x4 obj/CUPDRONE/cli.o
 .bss.enabledSensors
                0x200008cc        0x4 obj/CUPDRONE/config.o
 .bss.poshold_ratePID
                0x200008d0       0x28 obj/CUPDRONE/gps.o
 .bss.navPID_PARAM
                0x200008f8       0x10 obj/CUPDRONE/gps.o
 .bss.GPS_filter
                0x20000908       0x28 obj/CUPDRONE/gps.o
 .bss.actual_speed
                0x20000930        0x4 obj/CUPDRONE/gps.o
 .bss.speed_old.9969
                0x20000934        0x4 obj/CUPDRONE/gps.o
 .bss.GPS_filter_sum
                0x20000938        0x8 obj/CUPDRONE/gps.o
 .bss.poshold_ratePID_PARAM
                0x20000940       0x10 obj/CUPDRONE/gps.o
 .bss._msg_id   0x20000950        0x1 obj/CUPDRONE/gps.o
 *fill*         0x20000951        0x3 
 .bss.GPS_WP    0x20000954        0x8 obj/CUPDRONE/gps.o
 .bss.navPID    0x2000095c       0x28 obj/CUPDRONE/gps.o
 .bss.nav_bearing
                0x20000984        0x4 obj/CUPDRONE/gps.o
 .bss.next_fix  0x20000988        0x1 obj/CUPDRONE/gps.o
 *fill*         0x20000989        0x1 
 .bss._payload_length
                0x2000098a        0x2 obj/CUPDRONE/gps.o
 .bss.dTnav     0x2000098c        0x4 obj/CUPDRONE/gps.o
 .bss.original_target_bearing
                0x20000990        0x4 obj/CUPDRONE/gps.o
 .bss.frame.10053
                0x20000994        0x1 obj/CUPDRONE/gps.o
 *fill*         0x20000995        0x1 
 .bss.waypoint_speed_gov
                0x20000996        0x2 obj/CUPDRONE/gps.o
 .bss.rate_error
                0x20000998        0x4 obj/CUPDRONE/gps.o
 .bss._payload_counter
                0x2000099c        0x2 obj/CUPDRONE/gps.o
 *fill*         0x2000099e        0x2 
 .bss.error     0x200009a0        0x8 obj/CUPDRONE/gps.o
 .bss.parity.10050
                0x200009a8        0x1 obj/CUPDRONE/gps.o
 *fill*         0x200009a9        0x1 
 .bss.nav_takeoff_bearing
                0x200009aa        0x2 obj/CUPDRONE/gps.o
 .bss.offset.10049
                0x200009ac        0x1 obj/CUPDRONE/gps.o
 *fill*         0x200009ad        0x3 
 .bss.last.9970
                0x200009b0        0x8 obj/CUPDRONE/gps.o
 .bss._new_speed
                0x200009b8        0x1 obj/CUPDRONE/gps.o
 *fill*         0x200009b9        0x3 
 .bss._buffer   0x200009bc       0xc8 obj/CUPDRONE/gps.o
 .bss._step     0x20000a84        0x1 obj/CUPDRONE/gps.o
 .bss.string.10051
                0x20000a85        0xf obj/CUPDRONE/gps.o
 .bss.init.9971
                0x20000a94        0x1 obj/CUPDRONE/gps.o
 .bss.GPS_filter_index
                0x20000a95        0x1 obj/CUPDRONE/gps.o
 *fill*         0x20000a96        0x2 
 .bss.target_bearing
                0x20000a98        0x4 obj/CUPDRONE/gps.o
 .bss.posholdPID_PARAM
                0x20000a9c       0x10 obj/CUPDRONE/gps.o
 .bss.checksum_param.10052
                0x20000aac        0x1 obj/CUPDRONE/gps.o
 .bss._ck_a     0x20000aad        0x1 obj/CUPDRONE/gps.o
 .bss._ck_b     0x20000aae        0x1 obj/CUPDRONE/gps.o
 *fill*         0x20000aaf        0x1 
 .bss.wp_distance
                0x20000ab0        0x4 obj/CUPDRONE/gps.o
 .bss.param.10048
                0x20000ab4        0x1 obj/CUPDRONE/gps.o
 *fill*         0x20000ab5        0x3 
 .bss.nav_loopTimer.9917
                0x20000ab8        0x4 obj/CUPDRONE/gps.o
 .bss._new_position
                0x20000abc        0x1 obj/CUPDRONE/gps.o
 *fill*         0x20000abd        0x3 
 .bss.accz_smooth.9822
                0x20000ac0        0x4 obj/CUPDRONE/imu.o
 .bss.baroTemperature
                0x20000ac4        0x4 obj/CUPDRONE/imu.o
                0x20000ac4                baroTemperature
 .bss.accLPF.9846
                0x20000ac8        0xc obj/CUPDRONE/imu.o
 .bss.gyroData  0x20000ad4        0x6 obj/CUPDRONE/imu.o
                0x20000ad4                gyroData
 .bss.accZ_25deg
                0x20000ada        0x2 obj/CUPDRONE/imu.o
                0x20000ada                accZ_25deg
 .bss.previousT.9865
                0x20000adc        0x4 obj/CUPDRONE/imu.o
 .bss.EstM.9844
                0x20000ae0        0xc obj/CUPDRONE/imu.o
 .bss.angle     0x20000aec        0x4 obj/CUPDRONE/imu.o
                0x20000aec                angle
 .bss.lastBaroAlt.9879
                0x20000af0        0x4 obj/CUPDRONE/imu.o
 .bss.BaroAlt   0x20000af4        0x4 obj/CUPDRONE/imu.o
                0x20000af4                BaroAlt
 .bss.throttleAngleCorrection
                0x20000af8        0x2 obj/CUPDRONE/imu.o
                0x20000af8                throttleAngleCorrection
 *fill*         0x20000afa        0x2 
 .bss.magneticDeclination
                0x20000afc        0x4 obj/CUPDRONE/imu.o
                0x20000afc                magneticDeclination
 .bss.gyroYawSmooth.9777
                0x20000b00        0x2 obj/CUPDRONE/imu.o
 *fill*         0x20000b02        0x2 
 .bss.vel.9877  0x20000b04        0x4 obj/CUPDRONE/imu.o
 .bss.baroPressure
                0x20000b08        0x4 obj/CUPDRONE/imu.o
                0x20000b08                baroPressure
 .bss.baroGroundPressure.9881
                0x20000b0c        0x4 obj/CUPDRONE/imu.o
 .bss.gyroZero  0x20000b10        0x6 obj/CUPDRONE/imu.o
                0x20000b10                gyroZero
 *fill*         0x20000b16        0x2 
 .bss.accAlt.9878
                0x20000b18        0x4 obj/CUPDRONE/imu.o
 .bss.baroGroundAltitude.9880
                0x20000b1c        0x4 obj/CUPDRONE/imu.o
 .bss.accZoffset.9821
                0x20000b20        0x4 obj/CUPDRONE/imu.o
 .bss.errorAltitudeI
                0x20000b24        0x4 obj/CUPDRONE/imu.o
                0x20000b24                errorAltitudeI
 .bss.anglerad  0x20000b28        0x8 obj/CUPDRONE/imu.o
                0x20000b28                anglerad
 .bss.previousT.9847
                0x20000b30        0x4 obj/CUPDRONE/imu.o
 .bss.baroPressureSum
                0x20000b34        0x4 obj/CUPDRONE/imu.o
                0x20000b34                baroPressureSum
 .bss.vario     0x20000b38        0x4 obj/CUPDRONE/imu.o
                0x20000b38                vario
 .bss.accTimeSum
                0x20000b3c        0x4 obj/CUPDRONE/imu.o
                0x20000b3c                accTimeSum
 .bss.BaroPID   0x20000b40        0x4 obj/CUPDRONE/imu.o
                0x20000b40                BaroPID
 .bss.accSumCount
                0x20000b44        0x4 obj/CUPDRONE/imu.o
                0x20000b44                accSumCount
 .bss.numberMotor
                0x20000b48        0x1 obj/CUPDRONE/mixer.o
 *fill*         0x20000b49        0x1 
 .bss.slow_LFlaps.9832
                0x20000b4a        0x2 obj/CUPDRONE/mixer.o
 .bss.currentMixer
                0x20000b4c       0xc0 obj/CUPDRONE/mixer.o
 .bss.loopTime.9923
                0x20000c0c        0x4 obj/CUPDRONE/mw.o
 .bss.failsafeCnt
                0x20000c10        0x2 obj/CUPDRONE/mw.o
                0x20000c10                failsafeCnt
 *fill*         0x20000c12        0x2 
 .bss.errorGyroI
                0x20000c14        0xc obj/CUPDRONE/mw.o
 .bss.AccInflightCalibrationMeasurementDone
                0x20000c20        0x2 obj/CUPDRONE/mw.o
                0x20000c20                AccInflightCalibrationMeasurementDone
 .bss.rc4ValuesIndex.9848
                0x20000c22        0x1 obj/CUPDRONE/mw.o
 *fill*         0x20000c23        0x1 
 .bss.initialThrottleHold.9922
                0x20000c24        0x2 obj/CUPDRONE/mw.o
 *fill*         0x20000c26        0x2 
 .bss.GPSLEDTime.9834
                0x20000c28        0x4 obj/CUPDRONE/mw.o
 .bss.ind.9820  0x20000c2c        0x1 obj/CUPDRONE/mw.o
 *fill*         0x20000c2d        0x1 
 .bss.AccInflightCalibrationSavetoEEProm
                0x20000c2e        0x2 obj/CUPDRONE/mw.o
                0x20000c2e                AccInflightCalibrationSavetoEEProm
 .bss.delta1.9882
                0x20000c30        0xc obj/CUPDRONE/mw.o
 .bss.nav_mode  0x20000c3c        0x1 obj/CUPDRONE/mw.o
                0x20000c3c                nav_mode
 *fill*         0x20000c3d        0x1 
 .bss.lastGyro.9881
                0x20000c3e        0x6 obj/CUPDRONE/mw.o
 .bss.rcTime.9921
                0x20000c44        0x4 obj/CUPDRONE/mw.o
 .bss.isAltHoldChanged.9955
                0x20000c48        0x1 obj/CUPDRONE/mw.o
 *fill*         0x20000c49        0x1 
 .bss.rcDataMean.9847
                0x20000c4a       0x10 obj/CUPDRONE/mw.o
 .bss.vbatRawArray.9822
                0x20000c5a       0x10 obj/CUPDRONE/mw.o
 .bss.vbatTimer.9819
                0x20000c6a        0x1 obj/CUPDRONE/mw.o
 *fill*         0x20000c6b        0x1 
 .bss.rcData4Values.9846
                0x20000c6c       0x40 obj/CUPDRONE/mw.o
 .bss.taskOrder.9947
                0x20000cac        0x4 obj/CUPDRONE/mw.o
 .bss.delta1.9896
                0x20000cb0        0xc obj/CUPDRONE/mw.o
 .bss.previousTime
                0x20000cbc        0x4 obj/CUPDRONE/mw.o
                0x20000cbc                previousTime
 .bss.buzzerFreq.9818
                0x20000cc0        0x1 obj/CUPDRONE/mw.o
 *fill*         0x20000cc1        0x1 
 .bss.InflightcalibratingA
                0x20000cc2        0x2 obj/CUPDRONE/mw.o
                0x20000cc2                InflightcalibratingA
 .bss.calibratedAccTime.9812
                0x20000cc4        0x4 obj/CUPDRONE/mw.o
 .bss.rcDelayCommand.9917
                0x20000cc8        0x1 obj/CUPDRONE/mw.o
 *fill*         0x20000cc9        0x1 
 .bss.AccInflightCalibrationActive
                0x20000cca        0x2 obj/CUPDRONE/mw.o
                0x20000cca                AccInflightCalibrationActive
 .bss.rcSticks.9918
                0x20000ccc        0x1 obj/CUPDRONE/mw.o
 *fill*         0x20000ccd        0x1 
 .bss.failsafeEvents
                0x20000cce        0x2 obj/CUPDRONE/mw.o
                0x20000cce                failsafeEvents
 .bss.AltHoldCorr.9956
                0x20000cd0        0x2 obj/CUPDRONE/mw.o
 .bss.toggleBeep
                0x20000cd2        0x1 obj/CUPDRONE/mw.o
                0x20000cd2                toggleBeep
 *fill*         0x20000cd3        0x1 
 .bss.rcReadRawFunc
                0x20000cd4        0x4 obj/CUPDRONE/mw.o
                0x20000cd4                rcReadRawFunc
 .bss.delta2.9883
                0x20000cd8        0xc obj/CUPDRONE/mw.o
 .bss.GPS_update
                0x20000ce4        0x1 obj/CUPDRONE/mw.o
                0x20000ce4                GPS_update
 *fill*         0x20000ce5        0x1 
 .bss.GPS_angle
                0x20000ce6        0x4 obj/CUPDRONE/mw.o
                0x20000ce6                GPS_angle
 .bss.cycleTime
                0x20000cea        0x2 obj/CUPDRONE/mw.o
                0x20000cea                cycleTime
 .bss.GPS_ground_course
                0x20000cec        0x2 obj/CUPDRONE/mw.o
                0x20000cec                GPS_ground_course
 *fill*         0x20000cee        0x2 
 .bss.lastError.9901
                0x20000cf0        0xc obj/CUPDRONE/mw.o
 .bss.errorAngleI
                0x20000cfc        0x8 obj/CUPDRONE/mw.o
 .bss.delta2.9897
                0x20000d04        0xc obj/CUPDRONE/mw.o
 .bss.currentTime
                0x20000d10        0x4 obj/CUPDRONE/mw.o
                0x20000d10                currentTime
 .bss.state.9817
                0x20000d14        0x4 obj/CUPDRONE/sensors.o
 .bss.magZeroTempMin.9864
                0x20000d18        0x6 obj/CUPDRONE/sensors.o
 *fill*         0x20000d1e        0x2 
 .bss.g.9842    0x20000d20        0xc obj/CUPDRONE/sensors.o
 .bss.accZero_saved.9799
                0x20000d2c        0x6 obj/CUPDRONE/sensors.o
 .bss.calibratingA
                0x20000d32        0x2 obj/CUPDRONE/sensors.o
                0x20000d32                calibratingA
 .bss.calibratingB
                0x20000d34        0x2 obj/CUPDRONE/sensors.o
                0x20000d34                calibratingB
 *fill*         0x20000d36        0x2 
 .bss.baroHistIdx.9811
                0x20000d38        0x4 obj/CUPDRONE/sensors.o
 .bss.angleTrim_saved.9800
                0x20000d3c        0x4 obj/CUPDRONE/sensors.o
 .bss.baroDeadline.9816
                0x20000d40        0x4 obj/CUPDRONE/sensors.o
 .bss.magZeroTempMax.9865
                0x20000d44        0x6 obj/CUPDRONE/sensors.o
 *fill*         0x20000d4a        0x2 
 .bss.t.9862    0x20000d4c        0x4 obj/CUPDRONE/sensors.o
 .bss.accHardware
                0x20000d50        0x1 obj/CUPDRONE/sensors.o
                0x20000d50                accHardware
 *fill*         0x20000d51        0x3 
 .bss.a.9793    0x20000d54        0xc obj/CUPDRONE/sensors.o
 .bss.var.9843  0x20000d60       0x3c obj/CUPDRONE/sensors.o
 .bss.calibratingG
                0x20000d9c        0x2 obj/CUPDRONE/sensors.o
                0x20000d9c                calibratingG
 *fill*         0x20000d9e        0x2 
 .bss.b.9798    0x20000da0        0xc obj/CUPDRONE/sensors.o
 .bss.magInit   0x20000dac        0x1 obj/CUPDRONE/sensors.o
 *fill*         0x20000dad        0x3 
 .bss.baroHistTab.9810
                0x20000db0       0xc0 obj/CUPDRONE/sensors.o
 .bss.tCal.9863
                0x20000e70        0x4 obj/CUPDRONE/sensors.o
 .bss.checksum  0x20000e74        0x1 obj/CUPDRONE/serial.o
 .bss.c_state.9979
                0x20000e75        0x1 obj/CUPDRONE/serial.o
 .bss.indRX     0x20000e76        0x1 obj/CUPDRONE/serial.o
 .bss.numberBoxItems
                0x20000e77        0x1 obj/CUPDRONE/serial.o
 .bss.offset.9970
                0x20000e78        0x1 obj/CUPDRONE/serial.o
 .bss.cliMode   0x20000e79        0x1 obj/CUPDRONE/serial.o
                0x20000e79                cliMode
 .bss.dataSize.9971
                0x20000e7a        0x1 obj/CUPDRONE/serial.o
 .bss.availableBoxes
                0x20000e7b       0x15 obj/CUPDRONE/serial.o
 .bss.cmdMSP    0x20000e90        0x1 obj/CUPDRONE/serial.o
 .bss.t.9760    0x20000e91        0x1 obj/CUPDRONE/serial.o
 .bss.t.9764    0x20000e92        0x1 obj/CUPDRONE/serial.o
 .bss.inBuf     0x20000e93       0x40 obj/CUPDRONE/serial.o
 .bss.sbusFramePosition.9781
                0x20000ed3        0x1 obj/CUPDRONE/sbus.o
 .bss.sbusFrameDone
                0x20000ed4        0x1 obj/CUPDRONE/sbus.o
 *fill*         0x20000ed5        0x3 
 .bss.sbusChannelData
                0x20000ed8       0x20 obj/CUPDRONE/sbus.o
 .bss.sbus      0x20000ef8       0x19 obj/CUPDRONE/sbus.o
 *fill*         0x20000f11        0x3 
 .bss.sbusTimeLast.9780
                0x20000f14        0x4 obj/CUPDRONE/sbus.o
 .bss.sumd      0x20000f18       0x15 obj/CUPDRONE/sumd.o
 .bss.sumdFrameDone
                0x20000f2d        0x1 obj/CUPDRONE/sumd.o
 .bss.sumdIndex.9759
                0x20000f2e        0x1 obj/CUPDRONE/sumd.o
 .bss.sumdSize  0x20000f2f        0x1 obj/CUPDRONE/sumd.o
 .bss.sumdChannelData
                0x20000f30       0x20 obj/CUPDRONE/sumd.o
 .bss.sumdTimeLast.9758
                0x20000f50        0x4 obj/CUPDRONE/sumd.o
 .bss.spek_chan_shift
                0x20000f54        0x1 obj/CUPDRONE/spektrum.o
 .bss.spekFramePosition.9766
                0x20000f55        0x1 obj/CUPDRONE/spektrum.o
 *fill*         0x20000f56        0x2 
 .bss.spekChannelData.9774
                0x20000f58       0x1c obj/CUPDRONE/spektrum.o
 .bss.rcFrameComplete
                0x20000f74        0x1 obj/CUPDRONE/spektrum.o
 .bss.spekDataIncoming
                0x20000f75        0x1 obj/CUPDRONE/spektrum.o
 .bss.spekHiRes
                0x20000f76        0x1 obj/CUPDRONE/spektrum.o
 .bss.spek_chan_mask
                0x20000f77        0x1 obj/CUPDRONE/spektrum.o
 .bss.spekTimeLast.9764
                0x20000f78        0x4 obj/CUPDRONE/spektrum.o
 .bss.cycleNum  0x20000f7c        0x1 obj/CUPDRONE/telemetry.o
 .bss.telemetryEnabled
                0x20000f7d        0x1 obj/CUPDRONE/telemetry.o
 *fill*         0x20000f7e        0x2 
 .bss.lastCycleTime
                0x20000f80        0x4 obj/CUPDRONE/telemetry.o
 .bss.currentCell.9784
                0x20000f84        0x2 obj/CUPDRONE/telemetry.o
 .bss.final_stop.9384
                0x20000f86        0x1 obj/CUPDRONE/drv_i2c.o
 .bss.writing   0x20000f87        0x1 obj/CUPDRONE/drv_i2c.o
 .bss.reg       0x20000f88        0x1 obj/CUPDRONE/drv_i2c.o
 .bss.bytes     0x20000f89        0x1 obj/CUPDRONE/drv_i2c.o
 *fill*         0x20000f8a        0x2 
 .bss.read_p    0x20000f8c        0x4 obj/CUPDRONE/drv_i2c.o
 .bss.error     0x20000f90        0x1 obj/CUPDRONE/drv_i2c.o
 .bss.index.9385
                0x20000f91        0x1 obj/CUPDRONE/drv_i2c.o
 *fill*         0x20000f92        0x2 
 .bss.write_p   0x20000f94        0x4 obj/CUPDRONE/drv_i2c.o
 .bss.subaddress_sent.9383
                0x20000f98        0x1 obj/CUPDRONE/drv_i2c.o
 .bss.reading   0x20000f99        0x1 obj/CUPDRONE/drv_i2c.o
 *fill*         0x20000f9a        0x2 
 .bss.I2Cx      0x20000f9c        0x4 obj/CUPDRONE/drv_i2c.o
 .bss.i2cErrorCount
                0x20000fa0        0x2 obj/CUPDRONE/drv_i2c.o
 .bss.busy      0x20000fa2        0x1 obj/CUPDRONE/drv_i2c.o
 .bss.addr      0x20000fa3        0x1 obj/CUPDRONE/drv_i2c.o
 .bss.sysTickUptime
                0x20000fa4        0x4 obj/CUPDRONE/drv_system.o
                0x20000fa4                sysTickUptime
 .bss.usTicks   0x20000fa8        0x4 obj/CUPDRONE/drv_system.o
 .bss.rx2Buffer.9326
                0x20000fac       0x80 obj/CUPDRONE/drv_uart.o
 .bss.rx1Buffer.9317
                0x2000102c      0x100 obj/CUPDRONE/drv_uart.o
 .bss.tx2Buffer.9327
                0x2000112c       0x40 obj/CUPDRONE/drv_uart.o
 .bss.uartPort1
                0x2000116c       0x50 obj/CUPDRONE/drv_uart.o
 .bss.uartPort2
                0x200011bc       0x50 obj/CUPDRONE/drv_uart.o
 .bss.tx1Buffer.9318
                0x2000120c      0x100 obj/CUPDRONE/drv_uart.o
 .bss.stdout_putf
                0x2000130c        0x4 obj/CUPDRONE/printf.o
 .bss.stdout_putp
                0x20001310        0x4 obj/CUPDRONE/printf.o
 .bss.boardRotation
                0x20001314       0x24 obj/CUPDRONE/utils.o
 .bss.xSuspendedTaskList
                0x20001338       0x14 obj/CUPDRONE/tasks.o
 .bss.pxDelayedTaskList
                0x2000134c        0x4 obj/CUPDRONE/tasks.o
 .bss.xSchedulerRunning
                0x20001350        0x4 obj/CUPDRONE/tasks.o
 .bss.uxTasksDeleted
                0x20001354        0x4 obj/CUPDRONE/tasks.o
 .bss.xTasksWaitingTermination
                0x20001358       0x14 obj/CUPDRONE/tasks.o
 .bss.xDelayedTaskList2
                0x2000136c       0x14 obj/CUPDRONE/tasks.o
 .bss.uxPendedTicks
                0x20001380        0x4 obj/CUPDRONE/tasks.o
 .bss.pxReadyTasksLists
                0x20001384       0xa0 obj/CUPDRONE/tasks.o
 .bss.uxSchedulerSuspended
                0x20001424        0x4 obj/CUPDRONE/tasks.o
 .bss.xNumOfOverflows
                0x20001428        0x4 obj/CUPDRONE/tasks.o
 .bss.pxCurrentTCB
                0x2000142c        0x4 obj/CUPDRONE/tasks.o
                0x2000142c                pxCurrentTCB
 .bss.xPendingReadyList
                0x20001430       0x14 obj/CUPDRONE/tasks.o
 .bss.xTickCount
                0x20001444        0x4 obj/CUPDRONE/tasks.o
 .bss.pxOverflowDelayedTaskList
                0x20001448        0x4 obj/CUPDRONE/tasks.o
 .bss.uxTaskNumber
                0x2000144c        0x4 obj/CUPDRONE/tasks.o
 .bss.xDelayedTaskList1
                0x20001450       0x14 obj/CUPDRONE/tasks.o
 .bss.uxCurrentNumberOfTasks
                0x20001464        0x4 obj/CUPDRONE/tasks.o
 .bss.uxTopReadyPriority
                0x20001468        0x4 obj/CUPDRONE/tasks.o
 .bss.xYieldPending
                0x2000146c        0x4 obj/CUPDRONE/tasks.o
 .bss.pxCurrentTimerList
                0x20001470        0x4 obj/CUPDRONE/timers.o
 .bss.xActiveTimerList1
                0x20001474       0x14 obj/CUPDRONE/timers.o
 .bss.xActiveTimerList2
                0x20001488       0x14 obj/CUPDRONE/timers.o
 .bss.xLastTime.5235
                0x2000149c        0x4 obj/CUPDRONE/timers.o
 .bss.xTimerQueue
                0x200014a0        0x4 obj/CUPDRONE/timers.o
 .bss.pxOverflowTimerList
                0x200014a4        0x4 obj/CUPDRONE/timers.o
 .bss.xHeapHasBeenInitialised.5028
                0x200014a8        0x4 obj/CUPDRONE/heap_2.o
 .bss.xStart    0x200014ac        0x8 obj/CUPDRONE/heap_2.o
 .bss.ucHeap    0x200014b4     0x1000 obj/CUPDRONE/heap_2.o
 .bss.xEnd      0x200024b4        0x8 obj/CUPDRONE/heap_2.o
 .bss.ucMaxSysCallPriority
                0x200024bc        0x1 obj/CUPDRONE/port.o
 *fill*         0x200024bd        0x3 
 .bss.ulMaxPRIGROUPValue
                0x200024c0        0x4 obj/CUPDRONE/port.o
 .bss.Data_Mul_MaxPacketSize
                0x200024c4        0x1 obj/CUPDRONE/usb_core.o
                0x200024c4                Data_Mul_MaxPacketSize
 .bss.USB_Tx_State
                0x200024c5        0x1 obj/CUPDRONE/hw_config.o
                0x200024c5                USB_Tx_State
 *fill*         0x200024c6        0x2 
 .bss.USART_Rx_ptr_in
                0x200024c8        0x4 obj/CUPDRONE/hw_config.o
                0x200024c8                USART_Rx_ptr_in
 .bss.USART_Rx_ptr_out
                0x200024cc        0x4 obj/CUPDRONE/hw_config.o
                0x200024cc                USART_Rx_ptr_out
 .bss.USART_Rx_length
                0x200024d0        0x4 obj/CUPDRONE/hw_config.o
                0x200024d0                USART_Rx_length
 .bss.FrameCount.9786
                0x200024d4        0x4 obj/CUPDRONE/usb_endp.o
 .bss.bIntPackSOF
                0x200024d8        0x1 obj/CUPDRONE/usb_istr.o
                0x200024d8                bIntPackSOF
 .bss.reset_state
                0x200024d9        0x1 obj/CUPDRONE/usb_prop.o
                0x200024d9                reset_state
 .bss.Request   0x200024da        0x1 obj/CUPDRONE/usb_prop.o
                0x200024da                Request
 *fill*         0x200024db        0x1 
 .bss.bDeviceState
                0x200024dc        0x4 obj/CUPDRONE/usb_pwr.o
                0x200024dc                bDeviceState
 *(COMMON)
 COMMON         0x200024e0      0x100 obj/CUPDRONE/drv_timer.o
                0x200024e0                timerConfig
 COMMON         0x200025e0      0x440 obj/CUPDRONE/config.o
                0x200025e0                cfg
                0x200026a4                mcfg
 COMMON         0x20002a20       0x1f obj/CUPDRONE/gps.o
                0x20002a20                ubs_protocol_bytes
                0x20002a21                ubx_nav_status_bits
                0x20002a22                xLeadFilter
                0x20002a24                gpsData
                0x20002a3c                yLeadFilter
                0x20002a3e                ubs_nav_fix_type
 *fill*         0x20002a3f        0x1 
 COMMON         0x20002a40       0x48 obj/CUPDRONE/imu.o
                0x20002a40                sonarAlt
                0x20002a44                gyroADC
                0x20002a4c                accSum
                0x20002a58                accVelScale
                0x20002a5c                accADC
                0x20002a64                EstAlt
                0x20002a68                magADC
                0x20002a70                AltHold
                0x20002a74                accSmooth
                0x20002a7c                EstG
 COMMON         0x20002a88       0x24 obj/CUPDRONE/main.o
                0x20002a88                core
 COMMON         0x20002aac       0x30 obj/CUPDRONE/mixer.o
                0x20002aac                motor
                0x20002ac4                motor_disarmed
 COMMON         0x20002adc      0x108 obj/CUPDRONE/mw.o
                0x20002adc                GPS_svinfo_chn
                0x20002aec                telemTemperature1
                0x20002aee                f
                0x20002b00                GPS_altitude
                0x20002b02                nav_rated
                0x20002b06                lookupThrottleRC
                0x20002b1e                nav
                0x20002b22                GPS_speed
                0x20002b24                GPS_hold
                0x20002b2c                debug
                0x20002b34                rcCommand
                0x20002b3c                vbat
                0x20002b3e                batteryWarningVoltage
                0x20002b40                axisPID
                0x20002b46                GPS_distanceToHome
                0x20002b48                GPS_home
                0x20002b50                GPS_directionToHome
                0x20002b52                rcOptions
                0x20002b67                GPS_svinfo_svid
                0x20002b78                GPS_coord
                0x20002b80                GPS_svinfo_quality
                0x20002b90                dynI8
                0x20002b94                rssi
                0x20002b96                GPS_numSat
                0x20002b97                GPS_numCh
                0x20002b98                headFreeModeHold
                0x20002b9a                rcData
                0x20002bbe                dynD8
                0x20002bc1                dynP8
                0x20002bc4                GPS_svinfo_cno
                0x20002bd4                AccInflightCalibrationArmed
                0x20002bd6                lookupPitchRollRC
 COMMON         0x20002be4       0x3e obj/CUPDRONE/sensors.o
                0x20002be4                acc
                0x20002bf4                magHold
                0x20002bf8                gyro
                0x20002c08                baro
                0x20002c20                heading
 COMMON         0x20002c22       0x10 obj/CUPDRONE/spektrum.o
                0x20002c22                spekFrame
 *fill*         0x20002c32        0x2 
 COMMON         0x20002c34      0x498 obj/CUPDRONE/drv_softserial.o
                0x20002c34                softSerialPorts
 COMMON         0x200030cc        0x4 obj/CUPDRONE/drv_vcom.o
                0x200030cc                Hw_VCom_RxdFuncPtr
 COMMON         0x200030d0      0x408 obj/CUPDRONE/drv_vcom_q.o
                0x200030d0                Hw_VCom_Q_Buffer
                0x200034d2                Hw_VCom_Q_End
                0x200034d4                Hw_VCom_Q_Start
                0x200034d6                Hw_VCom_Q_Size
 COMMON         0x200034d8        0x1 obj/CUPDRONE/system_stm32f10x.o
                0x200034d8                HSEStartUpStatus
 *fill*         0x200034d9        0x1 
 COMMON         0x200034da        0x2 obj/CUPDRONE/usb_core.o
                0x200034da                StatusInfo
 COMMON         0x200034dc       0x32 obj/CUPDRONE/usb_init.o
                0x200034dc                SaveState
                0x200034e0                pProperty
                0x200034e4                EPindex
                0x200034e8                Device_Info
                0x20003504                pUser_Standard_Requests
                0x20003508                pInformation
                0x2000350c                wInterrupt_Mask
 COMMON         0x2000350e        0x4 obj/CUPDRONE/usb_int.o
                0x2000350e                SaveRState
                0x20003510                SaveTState
 *fill*         0x20003512        0x2 
 COMMON         0x20003514      0x818 obj/CUPDRONE/hw_config.o
                0x20003514                USART_Rx_Buffer
                0x20003d14                USART_InitStructure
                0x20003d24                EXTI_InitStructure
 COMMON         0x20003d2c       0x40 obj/CUPDRONE/usb_endp.o
                0x20003d2c                USB_Rx_Buffer
 COMMON         0x20003d6c        0x2 obj/CUPDRONE/usb_istr.o
                0x20003d6c                wIstr
 *fill*         0x20003d6e        0x2 
 COMMON         0x20003d70       0x10 obj/CUPDRONE/thread_main.o
                0x20003d70                Thread_Handle_nrf
                0x20003d74                Thread_Handle_menu
                0x20003d78                Thread_Handle_mw
                0x20003d7c                Mutex_Loop
                0x20003d80                . = ALIGN (0x4)
                0x20003d80                _ebss = .
                0x20003d80                __bss_end__ = _ebss

._user_heap_stack
                0x20003d80      0x400 load address 0x08018b6c
                0x20003d80                . = ALIGN (0x4)
                [!provide]                PROVIDE (end, .)
                [!provide]                PROVIDE (_end, .)
                0x20003d80                . = (. + _Min_Heap_Size)
                0x20004180                . = (. + _Min_Stack_Size)
 *fill*         0x20003d80      0x400 
                0x20004180                . = ALIGN (0x4)

.memory_b1_text
 *(.mb1text)
 *(.mb1text*)
 *(.mb1rodata)
 *(.mb1rodata*)

/DISCARD/
 libc.a(*)
 libm.a(*)
 libgcc.a(*)

.ARM.attributes
                0x00000000       0x29
 *(.ARM.attributes)
 .ARM.attributes
                0x00000000       0x1d c:/program files (x86)/gnu tools arm embedded/5.2 2015q4/bin/../lib/gcc/arm-none-eabi/5.2.1/armv7-m/crti.o
 .ARM.attributes
                0x0000001d       0x2d c:/program files (x86)/gnu tools arm embedded/5.2 2015q4/bin/../lib/gcc/arm-none-eabi/5.2.1/armv7-m/crtbegin.o
 .ARM.attributes
                0x0000004a       0x33 obj/CUPDRONE/drv_adc.o
 .ARM.attributes
                0x0000007d       0x33 obj/CUPDRONE/drv_adxl345.o
 .ARM.attributes
                0x000000b0       0x33 obj/CUPDRONE/drv_bma280.o
 .ARM.attributes
                0x000000e3       0x33 obj/CUPDRONE/drv_bmp085.o
 .ARM.attributes
                0x00000116       0x33 obj/CUPDRONE/drv_ms5611.o
 .ARM.attributes
                0x00000149       0x33 obj/CUPDRONE/drv_hcsr04.o
 .ARM.attributes
                0x0000017c       0x33 obj/CUPDRONE/drv_hmc5883l.o
 .ARM.attributes
                0x000001af       0x33 obj/CUPDRONE/drv_mma845x.o
 .ARM.attributes
                0x000001e2       0x33 obj/CUPDRONE/drv_mpu3050.o
 .ARM.attributes
                0x00000215       0x33 obj/CUPDRONE/drv_mpu6050.o
 .ARM.attributes
                0x00000248       0x33 obj/CUPDRONE/drv_l3g4200d.o
 .ARM.attributes
                0x0000027b       0x33 obj/CUPDRONE/drv_pwm.o
 .ARM.attributes
                0x000002ae       0x33 obj/CUPDRONE/drv_spi.o
 .ARM.attributes
                0x000002e1       0x33 obj/CUPDRONE/drv_timer.o
 .ARM.attributes
                0x00000314       0x33 obj/CUPDRONE/hexairbot.o
 .ARM.attributes
                0x00000347       0x21 obj/CUPDRONE/startup_stm32f10x_md_gcc.o
 .ARM.attributes
                0x00000368       0x33 obj/CUPDRONE/buzzer.o
 .ARM.attributes
                0x0000039b       0x33 obj/CUPDRONE/cli.o
 .ARM.attributes
                0x000003ce       0x33 obj/CUPDRONE/config.o
 .ARM.attributes
                0x00000401       0x33 obj/CUPDRONE/gps.o
 .ARM.attributes
                0x00000434       0x33 obj/CUPDRONE/imu.o
 .ARM.attributes
                0x00000467       0x33 obj/CUPDRONE/main.o
 .ARM.attributes
                0x0000049a       0x33 obj/CUPDRONE/mixer.o
 .ARM.attributes
                0x000004cd       0x33 obj/CUPDRONE/mw.o
 .ARM.attributes
                0x00000500       0x33 obj/CUPDRONE/sensors.o
 .ARM.attributes
                0x00000533       0x33 obj/CUPDRONE/serial.o
 .ARM.attributes
                0x00000566       0x33 obj/CUPDRONE/sbus.o
 .ARM.attributes
                0x00000599       0x33 obj/CUPDRONE/sumd.o
 .ARM.attributes
                0x000005cc       0x33 obj/CUPDRONE/spektrum.o
 .ARM.attributes
                0x000005ff       0x33 obj/CUPDRONE/telemetry.o
 .ARM.attributes
                0x00000632       0x33 obj/CUPDRONE/drv_gpio.o
 .ARM.attributes
                0x00000665       0x33 obj/CUPDRONE/drv_i2c.o
 .ARM.attributes
                0x00000698       0x33 obj/CUPDRONE/drv_system.o
 .ARM.attributes
                0x000006cb       0x33 obj/CUPDRONE/drv_serial.o
 .ARM.attributes
                0x000006fe       0x33 obj/CUPDRONE/drv_softserial.o
 .ARM.attributes
                0x00000731       0x33 obj/CUPDRONE/drv_uart.o
 .ARM.attributes
                0x00000764       0x33 obj/CUPDRONE/drv_vcom.o
 .ARM.attributes
                0x00000797       0x33 obj/CUPDRONE/drv_vcom_q.o
 .ARM.attributes
                0x000007ca       0x33 obj/CUPDRONE/printf.o
 .ARM.attributes
                0x000007fd       0x33 obj/CUPDRONE/utils.o
 .ARM.attributes
                0x00000830       0x33 obj/CUPDRONE/system_stm32f10x.o
 .ARM.attributes
                0x00000863       0x33 obj/CUPDRONE/misc.o
 .ARM.attributes
                0x00000896       0x33 obj/CUPDRONE/stm32f10x_adc.o
 .ARM.attributes
                0x000008c9       0x33 obj/CUPDRONE/stm32f10x_dma.o
 .ARM.attributes
                0x000008fc       0x33 obj/CUPDRONE/stm32f10x_exti.o
 .ARM.attributes
                0x0000092f       0x33 obj/CUPDRONE/stm32f10x_flash.o
 .ARM.attributes
                0x00000962       0x33 obj/CUPDRONE/stm32f10x_gpio.o
 .ARM.attributes
                0x00000995       0x33 obj/CUPDRONE/stm32f10x_i2c.o
 .ARM.attributes
                0x000009c8       0x33 obj/CUPDRONE/stm32f10x_rcc.o
 .ARM.attributes
                0x000009fb       0x33 obj/CUPDRONE/stm32f10x_spi.o
 .ARM.attributes
                0x00000a2e       0x33 obj/CUPDRONE/stm32f10x_tim.o
 .ARM.attributes
                0x00000a61       0x33 obj/CUPDRONE/stm32f10x_usart.o
 .ARM.attributes
                0x00000a94       0x33 obj/CUPDRONE/list.o
 .ARM.attributes
                0x00000ac7       0x33 obj/CUPDRONE/queue.o
 .ARM.attributes
                0x00000afa       0x33 obj/CUPDRONE/tasks.o
 .ARM.attributes
                0x00000b2d       0x33 obj/CUPDRONE/timers.o
 .ARM.attributes
                0x00000b60       0x33 obj/CUPDRONE/cmsis_os.o
 .ARM.attributes
                0x00000b93       0x33 obj/CUPDRONE/heap_2.o
 .ARM.attributes
                0x00000bc6       0x33 obj/CUPDRONE/port.o
 .ARM.attributes
                0x00000bf9       0x33 obj/CUPDRONE/usb_core.o
 .ARM.attributes
                0x00000c2c       0x33 obj/CUPDRONE/usb_init.o
 .ARM.attributes
                0x00000c5f       0x33 obj/CUPDRONE/usb_int.o
 .ARM.attributes
                0x00000c92       0x33 obj/CUPDRONE/usb_mem.o
 .ARM.attributes
                0x00000cc5       0x33 obj/CUPDRONE/usb_regs.o
 .ARM.attributes
                0x00000cf8       0x33 obj/CUPDRONE/usb_sil.o
 .ARM.attributes
                0x00000d2b       0x33 obj/CUPDRONE/hw_config.o
 .ARM.attributes
                0x00000d5e       0x33 obj/CUPDRONE/usb_desc.o
 .ARM.attributes
                0x00000d91       0x33 obj/CUPDRONE/usb_endp.o
 .ARM.attributes
                0x00000dc4       0x33 obj/CUPDRONE/usb_istr.o
 .ARM.attributes
                0x00000df7       0x33 obj/CUPDRONE/usb_prop.o
 .ARM.attributes
                0x00000e2a       0x33 obj/CUPDRONE/usb_pwr.o
 .ARM.attributes
                0x00000e5d       0x33 obj/CUPDRONE/thread_main.o
 .ARM.attributes
                0x00000e90       0x33 obj/CUPDRONE/thread_menu.o
 .ARM.attributes
                0x00000ec3       0x33 obj/CUPDRONE/thread_mw.o
 .ARM.attributes
                0x00000ef6       0x33 obj/CUPDRONE/thread_nrf.o
 .ARM.attributes
                0x00000f29       0x2d c:/program files (x86)/gnu tools arm embedded/5.2 2015q4/bin/../lib/gcc/arm-none-eabi/5.2.1/../../../../arm-none-eabi/lib/armv7-m\libm.a(lib_a-sf_cos.o)
 .ARM.attributes
                0x00000f56       0x2d c:/program files (x86)/gnu tools arm embedded/5.2 2015q4/bin/../lib/gcc/arm-none-eabi/5.2.1/../../../../arm-none-eabi/lib/armv7-m\libm.a(lib_a-sf_lrint.o)
 .ARM.attributes
                0x00000f83       0x2d c:/program files (x86)/gnu tools arm embedded/5.2 2015q4/bin/../lib/gcc/arm-none-eabi/5.2.1/../../../../arm-none-eabi/lib/armv7-m\libm.a(lib_a-sf_sin.o)
 .ARM.attributes
                0x00000fb0       0x2d c:/program files (x86)/gnu tools arm embedded/5.2 2015q4/bin/../lib/gcc/arm-none-eabi/5.2.1/../../../../arm-none-eabi/lib/armv7-m\libm.a(lib_a-wf_atan2.o)
 .ARM.attributes
                0x00000fdd       0x2d c:/program files (x86)/gnu tools arm embedded/5.2 2015q4/bin/../lib/gcc/arm-none-eabi/5.2.1/../../../../arm-none-eabi/lib/armv7-m\libm.a(lib_a-wf_pow.o)
 .ARM.attributes
                0x0000100a       0x2d c:/program files (x86)/gnu tools arm embedded/5.2 2015q4/bin/../lib/gcc/arm-none-eabi/5.2.1/../../../../arm-none-eabi/lib/armv7-m\libm.a(lib_a-wf_sqrt.o)
 .ARM.attributes
                0x00001037       0x2d c:/program files (x86)/gnu tools arm embedded/5.2 2015q4/bin/../lib/gcc/arm-none-eabi/5.2.1/../../../../arm-none-eabi/lib/armv7-m\libm.a(lib_a-ef_atan2.o)
 .ARM.attributes
                0x00001064       0x2d c:/program files (x86)/gnu tools arm embedded/5.2 2015q4/bin/../lib/gcc/arm-none-eabi/5.2.1/../../../../arm-none-eabi/lib/armv7-m\libm.a(lib_a-ef_pow.o)
 .ARM.attributes
                0x00001091       0x2d c:/program files (x86)/gnu tools arm embedded/5.2 2015q4/bin/../lib/gcc/arm-none-eabi/5.2.1/../../../../arm-none-eabi/lib/armv7-m\libm.a(lib_a-ef_rem_pio2.o)
 .ARM.attributes
                0x000010be       0x2d c:/program files (x86)/gnu tools arm embedded/5.2 2015q4/bin/../lib/gcc/arm-none-eabi/5.2.1/../../../../arm-none-eabi/lib/armv7-m\libm.a(lib_a-ef_sqrt.o)
 .ARM.attributes
                0x000010eb       0x2d c:/program files (x86)/gnu tools arm embedded/5.2 2015q4/bin/../lib/gcc/arm-none-eabi/5.2.1/../../../../arm-none-eabi/lib/armv7-m\libm.a(lib_a-kf_cos.o)
 .ARM.attributes
                0x00001118       0x2d c:/program files (x86)/gnu tools arm embedded/5.2 2015q4/bin/../lib/gcc/arm-none-eabi/5.2.1/../../../../arm-none-eabi/lib/armv7-m\libm.a(lib_a-kf_rem_pio2.o)
 .ARM.attributes
                0x00001145       0x2d c:/program files (x86)/gnu tools arm embedded/5.2 2015q4/bin/../lib/gcc/arm-none-eabi/5.2.1/../../../../arm-none-eabi/lib/armv7-m\libm.a(lib_a-kf_sin.o)
 .ARM.attributes
                0x00001172       0x2d c:/program files (x86)/gnu tools arm embedded/5.2 2015q4/bin/../lib/gcc/arm-none-eabi/5.2.1/../../../../arm-none-eabi/lib/armv7-m\libm.a(lib_a-s_lib_ver.o)
 .ARM.attributes
                0x0000119f       0x2d c:/program files (x86)/gnu tools arm embedded/5.2 2015q4/bin/../lib/gcc/arm-none-eabi/5.2.1/../../../../arm-none-eabi/lib/armv7-m\libm.a(lib_a-s_matherr.o)
 .ARM.attributes
                0x000011cc       0x2d c:/program files (x86)/gnu tools arm embedded/5.2 2015q4/bin/../lib/gcc/arm-none-eabi/5.2.1/../../../../arm-none-eabi/lib/armv7-m\libm.a(lib_a-s_rint.o)
 .ARM.attributes
                0x000011f9       0x2d c:/program files (x86)/gnu tools arm embedded/5.2 2015q4/bin/../lib/gcc/arm-none-eabi/5.2.1/../../../../arm-none-eabi/lib/armv7-m\libm.a(lib_a-sf_atan.o)
 .ARM.attributes
                0x00001226       0x2d c:/program files (x86)/gnu tools arm embedded/5.2 2015q4/bin/../lib/gcc/arm-none-eabi/5.2.1/../../../../arm-none-eabi/lib/armv7-m\libm.a(lib_a-sf_fabs.o)
 .ARM.attributes
                0x00001253       0x2d c:/program files (x86)/gnu tools arm embedded/5.2 2015q4/bin/../lib/gcc/arm-none-eabi/5.2.1/../../../../arm-none-eabi/lib/armv7-m\libm.a(lib_a-sf_finite.o)
 .ARM.attributes
                0x00001280       0x2d c:/program files (x86)/gnu tools arm embedded/5.2 2015q4/bin/../lib/gcc/arm-none-eabi/5.2.1/../../../../arm-none-eabi/lib/armv7-m\libm.a(lib_a-sf_floor.o)
 .ARM.attributes
                0x000012ad       0x2d c:/program files (x86)/gnu tools arm embedded/5.2 2015q4/bin/../lib/gcc/arm-none-eabi/5.2.1/../../../../arm-none-eabi/lib/armv7-m\libm.a(lib_a-sf_fpclassify.o)
 .ARM.attributes
                0x000012da       0x2d c:/program files (x86)/gnu tools arm embedded/5.2 2015q4/bin/../lib/gcc/arm-none-eabi/5.2.1/../../../../arm-none-eabi/lib/armv7-m\libm.a(lib_a-sf_nan.o)
 .ARM.attributes
                0x00001307       0x2d c:/program files (x86)/gnu tools arm embedded/5.2 2015q4/bin/../lib/gcc/arm-none-eabi/5.2.1/../../../../arm-none-eabi/lib/armv7-m\libm.a(lib_a-sf_scalbn.o)
 .ARM.attributes
                0x00001334       0x2d c:/program files (x86)/gnu tools arm embedded/5.2 2015q4/bin/../lib/gcc/arm-none-eabi/5.2.1/../../../../arm-none-eabi/lib/armv7-m\libm.a(lib_a-sf_copysign.o)
 .ARM.attributes
                0x00001361       0x1d c:/program files (x86)/gnu tools arm embedded/5.2 2015q4/bin/../lib/gcc/arm-none-eabi/5.2.1/armv7-m\libgcc.a(_arm_addsubdf3.o)
 .ARM.attributes
                0x0000137e       0x1d c:/program files (x86)/gnu tools arm embedded/5.2 2015q4/bin/../lib/gcc/arm-none-eabi/5.2.1/armv7-m\libgcc.a(_arm_muldivdf3.o)
 .ARM.attributes
                0x0000139b       0x1d c:/program files (x86)/gnu tools arm embedded/5.2 2015q4/bin/../lib/gcc/arm-none-eabi/5.2.1/armv7-m\libgcc.a(_arm_cmpdf2.o)
 .ARM.attributes
                0x000013b8       0x1d c:/program files (x86)/gnu tools arm embedded/5.2 2015q4/bin/../lib/gcc/arm-none-eabi/5.2.1/armv7-m\libgcc.a(_arm_truncdfsf2.o)
 .ARM.attributes
                0x000013d5       0x1d c:/program files (x86)/gnu tools arm embedded/5.2 2015q4/bin/../lib/gcc/arm-none-eabi/5.2.1/armv7-m\libgcc.a(_arm_addsubsf3.o)
 .ARM.attributes
                0x000013f2       0x1d c:/program files (x86)/gnu tools arm embedded/5.2 2015q4/bin/../lib/gcc/arm-none-eabi/5.2.1/armv7-m\libgcc.a(_arm_muldivsf3.o)
 .ARM.attributes
                0x0000140f       0x1d c:/program files (x86)/gnu tools arm embedded/5.2 2015q4/bin/../lib/gcc/arm-none-eabi/5.2.1/armv7-m\libgcc.a(_arm_cmpsf2.o)
 .ARM.attributes
                0x0000142c       0x1d c:/program files (x86)/gnu tools arm embedded/5.2 2015q4/bin/../lib/gcc/arm-none-eabi/5.2.1/armv7-m\libgcc.a(_arm_fixsfsi.o)
 .ARM.attributes
                0x00001449       0x1d c:/program files (x86)/gnu tools arm embedded/5.2 2015q4/bin/../lib/gcc/arm-none-eabi/5.2.1/armv7-m\libgcc.a(_arm_fixunssfsi.o)
 .ARM.attributes
                0x00001466       0x2d c:/program files (x86)/gnu tools arm embedded/5.2 2015q4/bin/../lib/gcc/arm-none-eabi/5.2.1/../../../../arm-none-eabi/lib/armv7-m\libc.a(lib_a-atoi.o)
 .ARM.attributes
                0x00001493       0x2d c:/program files (x86)/gnu tools arm embedded/5.2 2015q4/bin/../lib/gcc/arm-none-eabi/5.2.1/../../../../arm-none-eabi/lib/armv7-m\libc.a(lib_a-bsearch.o)
 .ARM.attributes
                0x000014c0       0x2d c:/program files (x86)/gnu tools arm embedded/5.2 2015q4/bin/../lib/gcc/arm-none-eabi/5.2.1/../../../../arm-none-eabi/lib/armv7-m\libc.a(lib_a-ctype_.o)
 .ARM.attributes
                0x000014ed       0x2d c:/program files (x86)/gnu tools arm embedded/5.2 2015q4/bin/../lib/gcc/arm-none-eabi/5.2.1/../../../../arm-none-eabi/lib/armv7-m\libc.a(lib_a-errno.o)
 .ARM.attributes
                0x0000151a       0x2d c:/program files (x86)/gnu tools arm embedded/5.2 2015q4/bin/../lib/gcc/arm-none-eabi/5.2.1/../../../../arm-none-eabi/lib/armv7-m\libc.a(lib_a-impure.o)
 .ARM.attributes
                0x00001547       0x2d c:/program files (x86)/gnu tools arm embedded/5.2 2015q4/bin/../lib/gcc/arm-none-eabi/5.2.1/../../../../arm-none-eabi/lib/armv7-m\libc.a(lib_a-init.o)
 .ARM.attributes
                0x00001574       0x1b c:/program files (x86)/gnu tools arm embedded/5.2 2015q4/bin/../lib/gcc/arm-none-eabi/5.2.1/../../../../arm-none-eabi/lib/armv7-m\libc.a(lib_a-memcpy.o)
 .ARM.attributes
                0x0000158f       0x2d c:/program files (x86)/gnu tools arm embedded/5.2 2015q4/bin/../lib/gcc/arm-none-eabi/5.2.1/../../../../arm-none-eabi/lib/armv7-m\libc.a(lib_a-memset.o)
 .ARM.attributes
                0x000015bc       0x2d c:/program files (x86)/gnu tools arm embedded/5.2 2015q4/bin/../lib/gcc/arm-none-eabi/5.2.1/../../../../arm-none-eabi/lib/armv7-m\libc.a(lib_a-strcat.o)
 .ARM.attributes
                0x000015e9       0x2d c:/program files (x86)/gnu tools arm embedded/5.2 2015q4/bin/../lib/gcc/arm-none-eabi/5.2.1/../../../../arm-none-eabi/lib/armv7-m\libc.a(lib_a-strchr.o)
 .ARM.attributes
                0x00001616       0x2d c:/program files (x86)/gnu tools arm embedded/5.2 2015q4/bin/../lib/gcc/arm-none-eabi/5.2.1/../../../../arm-none-eabi/lib/armv7-m\libc.a(lib_a-strcpy.o)
 .ARM.attributes
                0x00001643       0x2d c:/program files (x86)/gnu tools arm embedded/5.2 2015q4/bin/../lib/gcc/arm-none-eabi/5.2.1/../../../../arm-none-eabi/lib/armv7-m\libc.a(lib_a-strlen-stub.o)
 .ARM.attributes
                0x00001670       0x2d c:/program files (x86)/gnu tools arm embedded/5.2 2015q4/bin/../lib/gcc/arm-none-eabi/5.2.1/../../../../arm-none-eabi/lib/armv7-m\libc.a(lib_a-strncasecmp.o)
 .ARM.attributes
                0x0000169d       0x2d c:/program files (x86)/gnu tools arm embedded/5.2 2015q4/bin/../lib/gcc/arm-none-eabi/5.2.1/../../../../arm-none-eabi/lib/armv7-m\libc.a(lib_a-strncpy.o)
 .ARM.attributes
                0x000016ca       0x2d c:/program files (x86)/gnu tools arm embedded/5.2 2015q4/bin/../lib/gcc/arm-none-eabi/5.2.1/../../../../arm-none-eabi/lib/armv7-m\libc.a(lib_a-strstr.o)
 .ARM.attributes
                0x000016f7       0x2d c:/program files (x86)/gnu tools arm embedded/5.2 2015q4/bin/../lib/gcc/arm-none-eabi/5.2.1/../../../../arm-none-eabi/lib/armv7-m\libc.a(lib_a-strtok.o)
 .ARM.attributes
                0x00001724       0x2d c:/program files (x86)/gnu tools arm embedded/5.2 2015q4/bin/../lib/gcc/arm-none-eabi/5.2.1/../../../../arm-none-eabi/lib/armv7-m\libc.a(lib_a-strtok_r.o)
 .ARM.attributes
                0x00001751       0x2d c:/program files (x86)/gnu tools arm embedded/5.2 2015q4/bin/../lib/gcc/arm-none-eabi/5.2.1/../../../../arm-none-eabi/lib/armv7-m\libc.a(lib_a-strtol.o)
 .ARM.attributes
                0x0000177e       0x2d c:/program files (x86)/gnu tools arm embedded/5.2 2015q4/bin/../lib/gcc/arm-none-eabi/5.2.1/../../../../arm-none-eabi/lib/armv7-m\libc.a(lib_a-__call_atexit.o)
 .ARM.attributes
                0x000017ab       0x2d c:/program files (x86)/gnu tools arm embedded/5.2 2015q4/bin/../lib/gcc/arm-none-eabi/5.2.1/../../../../arm-none-eabi/lib/armv7-m\libc.a(lib_a-atexit.o)
 .ARM.attributes
                0x000017d8       0x2d c:/program files (x86)/gnu tools arm embedded/5.2 2015q4/bin/../lib/gcc/arm-none-eabi/5.2.1/../../../../arm-none-eabi/lib/armv7-m\libc.a(lib_a-fini.o)
 .ARM.attributes
                0x00001805       0x2d c:/program files (x86)/gnu tools arm embedded/5.2 2015q4/bin/../lib/gcc/arm-none-eabi/5.2.1/../../../../arm-none-eabi/lib/armv7-m\libc.a(lib_a-memchr-stub.o)
 .ARM.attributes
                0x00001832       0x2d c:/program files (x86)/gnu tools arm embedded/5.2 2015q4/bin/../lib/gcc/arm-none-eabi/5.2.1/../../../../arm-none-eabi/lib/armv7-m\libc.a(lib_a-memcmp.o)
 .ARM.attributes
                0x0000185f       0x2d c:/program files (x86)/gnu tools arm embedded/5.2 2015q4/bin/../lib/gcc/arm-none-eabi/5.2.1/../../../../arm-none-eabi/lib/armv7-m\libc.a(lib_a-__atexit.o)
 .ARM.attributes
                0x0000188c       0x2d c:/program files (x86)/gnu tools arm embedded/5.2 2015q4/bin/../lib/gcc/arm-none-eabi/5.2.1/armv7-m/crtend.o
 .ARM.attributes
                0x000018b9       0x1d c:/program files (x86)/gnu tools arm embedded/5.2 2015q4/bin/../lib/gcc/arm-none-eabi/5.2.1/armv7-m/crtn.o
OUTPUT(obj/CUPDRONE.elf elf32-littlearm)

.comment        0x00000000       0x6e
 .comment       0x00000000       0x6e obj/CUPDRONE/drv_adc.o
                                 0x6f (size before relaxing)
 .comment       0x0000006e       0x6f obj/CUPDRONE/drv_adxl345.o
 .comment       0x0000006e       0x6f obj/CUPDRONE/drv_bma280.o
 .comment       0x0000006e       0x6f obj/CUPDRONE/drv_bmp085.o
 .comment       0x0000006e       0x6f obj/CUPDRONE/drv_ms5611.o
 .comment       0x0000006e       0x6f obj/CUPDRONE/drv_hcsr04.o
 .comment       0x0000006e       0x6f obj/CUPDRONE/drv_hmc5883l.o
 .comment       0x0000006e       0x6f obj/CUPDRONE/drv_mma845x.o
 .comment       0x0000006e       0x6f obj/CUPDRONE/drv_mpu3050.o
 .comment       0x0000006e       0x6f obj/CUPDRONE/drv_mpu6050.o
 .comment       0x0000006e       0x6f obj/CUPDRONE/drv_l3g4200d.o
 .comment       0x0000006e       0x6f obj/CUPDRONE/drv_pwm.o
 .comment       0x0000006e       0x6f obj/CUPDRONE/drv_spi.o
 .comment       0x0000006e       0x6f obj/CUPDRONE/drv_timer.o
 .comment       0x0000006e       0x6f obj/CUPDRONE/hexairbot.o
 .comment       0x0000006e       0x6f obj/CUPDRONE/buzzer.o
 .comment       0x0000006e       0x6f obj/CUPDRONE/cli.o
 .comment       0x0000006e       0x6f obj/CUPDRONE/config.o
 .comment       0x0000006e       0x6f obj/CUPDRONE/gps.o
 .comment       0x0000006e       0x6f obj/CUPDRONE/imu.o
 .comment       0x0000006e       0x6f obj/CUPDRONE/main.o
 .comment       0x0000006e       0x6f obj/CUPDRONE/mixer.o
 .comment       0x0000006e       0x6f obj/CUPDRONE/mw.o
 .comment       0x0000006e       0x6f obj/CUPDRONE/sensors.o
 .comment       0x0000006e       0x6f obj/CUPDRONE/serial.o
 .comment       0x0000006e       0x6f obj/CUPDRONE/sbus.o
 .comment       0x0000006e       0x6f obj/CUPDRONE/sumd.o
 .comment       0x0000006e       0x6f obj/CUPDRONE/spektrum.o
 .comment       0x0000006e       0x6f obj/CUPDRONE/telemetry.o
 .comment       0x0000006e       0x6f obj/CUPDRONE/drv_gpio.o
 .comment       0x0000006e       0x6f obj/CUPDRONE/drv_i2c.o
 .comment       0x0000006e       0x6f obj/CUPDRONE/drv_system.o
 .comment       0x0000006e       0x6f obj/CUPDRONE/drv_serial.o
 .comment       0x0000006e       0x6f obj/CUPDRONE/drv_softserial.o
 .comment       0x0000006e       0x6f obj/CUPDRONE/drv_uart.o
 .comment       0x0000006e       0x6f obj/CUPDRONE/drv_vcom.o
 .comment       0x0000006e       0x6f obj/CUPDRONE/drv_vcom_q.o
 .comment       0x0000006e       0x6f obj/CUPDRONE/printf.o
 .comment       0x0000006e       0x6f obj/CUPDRONE/utils.o
 .comment       0x0000006e       0x6f obj/CUPDRONE/system_stm32f10x.o
 .comment       0x0000006e       0x6f obj/CUPDRONE/misc.o
 .comment       0x0000006e       0x6f obj/CUPDRONE/stm32f10x_adc.o
 .comment       0x0000006e       0x6f obj/CUPDRONE/stm32f10x_dma.o
 .comment       0x0000006e       0x6f obj/CUPDRONE/stm32f10x_exti.o
 .comment       0x0000006e       0x6f obj/CUPDRONE/stm32f10x_flash.o
 .comment       0x0000006e       0x6f obj/CUPDRONE/stm32f10x_gpio.o
 .comment       0x0000006e       0x6f obj/CUPDRONE/stm32f10x_i2c.o
 .comment       0x0000006e       0x6f obj/CUPDRONE/stm32f10x_rcc.o
 .comment       0x0000006e       0x6f obj/CUPDRONE/stm32f10x_spi.o
 .comment       0x0000006e       0x6f obj/CUPDRONE/stm32f10x_tim.o
 .comment       0x0000006e       0x6f obj/CUPDRONE/stm32f10x_usart.o
 .comment       0x0000006e       0x6f obj/CUPDRONE/list.o
 .comment       0x0000006e       0x6f obj/CUPDRONE/queue.o
 .comment       0x0000006e       0x6f obj/CUPDRONE/tasks.o
 .comment       0x0000006e       0x6f obj/CUPDRONE/timers.o
 .comment       0x0000006e       0x6f obj/CUPDRONE/cmsis_os.o
 .comment       0x0000006e       0x6f obj/CUPDRONE/heap_2.o
 .comment       0x0000006e       0x6f obj/CUPDRONE/port.o
 .comment       0x0000006e       0x6f obj/CUPDRONE/usb_core.o
 .comment       0x0000006e       0x6f obj/CUPDRONE/usb_init.o
 .comment       0x0000006e       0x6f obj/CUPDRONE/usb_int.o
 .comment       0x0000006e       0x6f obj/CUPDRONE/usb_mem.o
 .comment       0x0000006e       0x6f obj/CUPDRONE/usb_regs.o
 .comment       0x0000006e       0x6f obj/CUPDRONE/usb_sil.o
 .comment       0x0000006e       0x6f obj/CUPDRONE/hw_config.o
 .comment       0x0000006e       0x6f obj/CUPDRONE/usb_desc.o
 .comment       0x0000006e       0x6f obj/CUPDRONE/usb_endp.o
 .comment       0x0000006e       0x6f obj/CUPDRONE/usb_istr.o
 .comment       0x0000006e       0x6f obj/CUPDRONE/usb_prop.o
 .comment       0x0000006e       0x6f obj/CUPDRONE/usb_pwr.o
 .comment       0x0000006e       0x6f obj/CUPDRONE/thread_main.o
 .comment       0x0000006e       0x6f obj/CUPDRONE/thread_menu.o
 .comment       0x0000006e       0x6f obj/CUPDRONE/thread_mw.o
 .comment       0x0000006e       0x6f obj/CUPDRONE/thread_nrf.o

.debug_frame    0x00000000      0x970
 .debug_frame   0x00000000       0x34 c:/program files (x86)/gnu tools arm embedded/5.2 2015q4/bin/../lib/gcc/arm-none-eabi/5.2.1/../../../../arm-none-eabi/lib/armv7-m\libm.a(lib_a-sf_cos.o)
 .debug_frame   0x00000034       0x40 c:/program files (x86)/gnu tools arm embedded/5.2 2015q4/bin/../lib/gcc/arm-none-eabi/5.2.1/../../../../arm-none-eabi/lib/armv7-m\libm.a(lib_a-sf_lrint.o)
 .debug_frame   0x00000074       0x34 c:/program files (x86)/gnu tools arm embedded/5.2 2015q4/bin/../lib/gcc/arm-none-eabi/5.2.1/../../../../arm-none-eabi/lib/armv7-m\libm.a(lib_a-sf_sin.o)
 .debug_frame   0x000000a8       0x20 c:/program files (x86)/gnu tools arm embedded/5.2 2015q4/bin/../lib/gcc/arm-none-eabi/5.2.1/../../../../arm-none-eabi/lib/armv7-m\libm.a(lib_a-wf_atan2.o)
 .debug_frame   0x000000c8       0x38 c:/program files (x86)/gnu tools arm embedded/5.2 2015q4/bin/../lib/gcc/arm-none-eabi/5.2.1/../../../../arm-none-eabi/lib/armv7-m\libm.a(lib_a-wf_pow.o)
 .debug_frame   0x00000100       0x3c c:/program files (x86)/gnu tools arm embedded/5.2 2015q4/bin/../lib/gcc/arm-none-eabi/5.2.1/../../../../arm-none-eabi/lib/armv7-m\libm.a(lib_a-wf_sqrt.o)
 .debug_frame   0x0000013c       0x3c c:/program files (x86)/gnu tools arm embedded/5.2 2015q4/bin/../lib/gcc/arm-none-eabi/5.2.1/../../../../arm-none-eabi/lib/armv7-m\libm.a(lib_a-ef_atan2.o)
 .debug_frame   0x00000178       0x64 c:/program files (x86)/gnu tools arm embedded/5.2 2015q4/bin/../lib/gcc/arm-none-eabi/5.2.1/../../../../arm-none-eabi/lib/armv7-m\libm.a(lib_a-ef_pow.o)
 .debug_frame   0x000001dc       0x48 c:/program files (x86)/gnu tools arm embedded/5.2 2015q4/bin/../lib/gcc/arm-none-eabi/5.2.1/../../../../arm-none-eabi/lib/armv7-m\libm.a(lib_a-ef_rem_pio2.o)
 .debug_frame   0x00000224       0x2c c:/program files (x86)/gnu tools arm embedded/5.2 2015q4/bin/../lib/gcc/arm-none-eabi/5.2.1/../../../../arm-none-eabi/lib/armv7-m\libm.a(lib_a-ef_sqrt.o)
 .debug_frame   0x00000250       0x34 c:/program files (x86)/gnu tools arm embedded/5.2 2015q4/bin/../lib/gcc/arm-none-eabi/5.2.1/../../../../arm-none-eabi/lib/armv7-m\libm.a(lib_a-kf_cos.o)
 .debug_frame   0x00000284       0x50 c:/program files (x86)/gnu tools arm embedded/5.2 2015q4/bin/../lib/gcc/arm-none-eabi/5.2.1/../../../../arm-none-eabi/lib/armv7-m\libm.a(lib_a-kf_rem_pio2.o)
 .debug_frame   0x000002d4       0x34 c:/program files (x86)/gnu tools arm embedded/5.2 2015q4/bin/../lib/gcc/arm-none-eabi/5.2.1/../../../../arm-none-eabi/lib/armv7-m\libm.a(lib_a-kf_sin.o)
 .debug_frame   0x00000308       0x20 c:/program files (x86)/gnu tools arm embedded/5.2 2015q4/bin/../lib/gcc/arm-none-eabi/5.2.1/../../../../arm-none-eabi/lib/armv7-m\libm.a(lib_a-s_matherr.o)
 .debug_frame   0x00000328       0x3c c:/program files (x86)/gnu tools arm embedded/5.2 2015q4/bin/../lib/gcc/arm-none-eabi/5.2.1/../../../../arm-none-eabi/lib/armv7-m\libm.a(lib_a-s_rint.o)
 .debug_frame   0x00000364       0x30 c:/program files (x86)/gnu tools arm embedded/5.2 2015q4/bin/../lib/gcc/arm-none-eabi/5.2.1/../../../../arm-none-eabi/lib/armv7-m\libm.a(lib_a-sf_atan.o)
 .debug_frame   0x00000394       0x20 c:/program files (x86)/gnu tools arm embedded/5.2 2015q4/bin/../lib/gcc/arm-none-eabi/5.2.1/../../../../arm-none-eabi/lib/armv7-m\libm.a(lib_a-sf_fabs.o)
 .debug_frame   0x000003b4       0x20 c:/program files (x86)/gnu tools arm embedded/5.2 2015q4/bin/../lib/gcc/arm-none-eabi/5.2.1/../../../../arm-none-eabi/lib/armv7-m\libm.a(lib_a-sf_finite.o)
 .debug_frame   0x000003d4       0x30 c:/program files (x86)/gnu tools arm embedded/5.2 2015q4/bin/../lib/gcc/arm-none-eabi/5.2.1/../../../../arm-none-eabi/lib/armv7-m\libm.a(lib_a-sf_floor.o)
 .debug_frame   0x00000404       0x20 c:/program files (x86)/gnu tools arm embedded/5.2 2015q4/bin/../lib/gcc/arm-none-eabi/5.2.1/../../../../arm-none-eabi/lib/armv7-m\libm.a(lib_a-sf_fpclassify.o)
 .debug_frame   0x00000424       0x20 c:/program files (x86)/gnu tools arm embedded/5.2 2015q4/bin/../lib/gcc/arm-none-eabi/5.2.1/../../../../arm-none-eabi/lib/armv7-m\libm.a(lib_a-sf_nan.o)
 .debug_frame   0x00000444       0x2c c:/program files (x86)/gnu tools arm embedded/5.2 2015q4/bin/../lib/gcc/arm-none-eabi/5.2.1/../../../../arm-none-eabi/lib/armv7-m\libm.a(lib_a-sf_scalbn.o)
 .debug_frame   0x00000470       0x20 c:/program files (x86)/gnu tools arm embedded/5.2 2015q4/bin/../lib/gcc/arm-none-eabi/5.2.1/../../../../arm-none-eabi/lib/armv7-m\libm.a(lib_a-sf_copysign.o)
 .debug_frame   0x00000490       0x30 c:/program files (x86)/gnu tools arm embedded/5.2 2015q4/bin/../lib/gcc/arm-none-eabi/5.2.1/../../../../arm-none-eabi/lib/armv7-m\libc.a(lib_a-atoi.o)
 .debug_frame   0x000004c0       0x38 c:/program files (x86)/gnu tools arm embedded/5.2 2015q4/bin/../lib/gcc/arm-none-eabi/5.2.1/../../../../arm-none-eabi/lib/armv7-m\libc.a(lib_a-bsearch.o)
 .debug_frame   0x000004f8       0x20 c:/program files (x86)/gnu tools arm embedded/5.2 2015q4/bin/../lib/gcc/arm-none-eabi/5.2.1/../../../../arm-none-eabi/lib/armv7-m\libc.a(lib_a-errno.o)
 .debug_frame   0x00000518       0x2c c:/program files (x86)/gnu tools arm embedded/5.2 2015q4/bin/../lib/gcc/arm-none-eabi/5.2.1/../../../../arm-none-eabi/lib/armv7-m\libc.a(lib_a-init.o)
 .debug_frame   0x00000544       0x34 c:/program files (x86)/gnu tools arm embedded/5.2 2015q4/bin/../lib/gcc/arm-none-eabi/5.2.1/../../../../arm-none-eabi/lib/armv7-m\libc.a(lib_a-memset.o)
 .debug_frame   0x00000578       0x28 c:/program files (x86)/gnu tools arm embedded/5.2 2015q4/bin/../lib/gcc/arm-none-eabi/5.2.1/../../../../arm-none-eabi/lib/armv7-m\libc.a(lib_a-strcat.o)
 .debug_frame   0x000005a0       0x4c c:/program files (x86)/gnu tools arm embedded/5.2 2015q4/bin/../lib/gcc/arm-none-eabi/5.2.1/../../../../arm-none-eabi/lib/armv7-m\libc.a(lib_a-strchr.o)
 .debug_frame   0x000005ec       0x20 c:/program files (x86)/gnu tools arm embedded/5.2 2015q4/bin/../lib/gcc/arm-none-eabi/5.2.1/../../../../arm-none-eabi/lib/armv7-m\libc.a(lib_a-strcpy.o)
 .debug_frame   0x0000060c       0x20 c:/program files (x86)/gnu tools arm embedded/5.2 2015q4/bin/../lib/gcc/arm-none-eabi/5.2.1/../../../../arm-none-eabi/lib/armv7-m\libc.a(lib_a-strlen-stub.o)
 .debug_frame   0x0000062c       0x38 c:/program files (x86)/gnu tools arm embedded/5.2 2015q4/bin/../lib/gcc/arm-none-eabi/5.2.1/../../../../arm-none-eabi/lib/armv7-m\libc.a(lib_a-strncasecmp.o)
 .debug_frame   0x00000664       0x34 c:/program files (x86)/gnu tools arm embedded/5.2 2015q4/bin/../lib/gcc/arm-none-eabi/5.2.1/../../../../arm-none-eabi/lib/armv7-m\libc.a(lib_a-strncpy.o)
 .debug_frame   0x00000698       0xd8 c:/program files (x86)/gnu tools arm embedded/5.2 2015q4/bin/../lib/gcc/arm-none-eabi/5.2.1/../../../../arm-none-eabi/lib/armv7-m\libc.a(lib_a-strstr.o)
 .debug_frame   0x00000770       0x20 c:/program files (x86)/gnu tools arm embedded/5.2 2015q4/bin/../lib/gcc/arm-none-eabi/5.2.1/../../../../arm-none-eabi/lib/armv7-m\libc.a(lib_a-strtok.o)
 .debug_frame   0x00000790       0x48 c:/program files (x86)/gnu tools arm embedded/5.2 2015q4/bin/../lib/gcc/arm-none-eabi/5.2.1/../../../../arm-none-eabi/lib/armv7-m\libc.a(lib_a-strtok_r.o)
 .debug_frame   0x000007d8       0x54 c:/program files (x86)/gnu tools arm embedded/5.2 2015q4/bin/../lib/gcc/arm-none-eabi/5.2.1/../../../../arm-none-eabi/lib/armv7-m\libc.a(lib_a-strtol.o)
 .debug_frame   0x0000082c       0x50 c:/program files (x86)/gnu tools arm embedded/5.2 2015q4/bin/../lib/gcc/arm-none-eabi/5.2.1/../../../../arm-none-eabi/lib/armv7-m\libc.a(lib_a-__call_atexit.o)
 .debug_frame   0x0000087c       0x20 c:/program files (x86)/gnu tools arm embedded/5.2 2015q4/bin/../lib/gcc/arm-none-eabi/5.2.1/../../../../arm-none-eabi/lib/armv7-m\libc.a(lib_a-atexit.o)
 .debug_frame   0x0000089c       0x34 c:/program files (x86)/gnu tools arm embedded/5.2 2015q4/bin/../lib/gcc/arm-none-eabi/5.2.1/../../../../arm-none-eabi/lib/armv7-m\libc.a(lib_a-fini.o)
 .debug_frame   0x000008d0       0x34 c:/program files (x86)/gnu tools arm embedded/5.2 2015q4/bin/../lib/gcc/arm-none-eabi/5.2.1/../../../../arm-none-eabi/lib/armv7-m\libc.a(lib_a-memchr-stub.o)
 .debug_frame   0x00000904       0x38 c:/program files (x86)/gnu tools arm embedded/5.2 2015q4/bin/../lib/gcc/arm-none-eabi/5.2.1/../../../../arm-none-eabi/lib/armv7-m\libc.a(lib_a-memcmp.o)
 .debug_frame   0x0000093c       0x34 c:/program files (x86)/gnu tools arm embedded/5.2 2015q4/bin/../lib/gcc/arm-none-eabi/5.2.1/../../../../arm-none-eabi/lib/armv7-m\libc.a(lib_a-__atexit.o)
